
SchulteTable.elf:     file format elf32-littlearm

Sections:
Idx Name          Size      VMA       LMA       File off  Algn
  0 .isr_vector   0000010c  08000000  08000000  00010000  2**0
                  CONTENTS, ALLOC, LOAD, READONLY, DATA
  1 .text         00003140  0800010c  0800010c  0001010c  2**2
                  CONTENTS, ALLOC, LOAD, READONLY, CODE
  2 .rodata       00000a04  0800324c  0800324c  0001324c  2**2
                  CONTENTS, ALLOC, LOAD, READONLY, DATA
  3 .ARM.extab    00000000  08003c50  08003c50  000200b4  2**0
                  CONTENTS
  4 .ARM          00000000  08003c50  08003c50  000200b4  2**0
                  CONTENTS
  5 .preinit_array 00000000  08003c50  08003c50  000200b4  2**0
                  CONTENTS, ALLOC, LOAD, DATA
  6 .init_array   00000004  08003c50  08003c50  00013c50  2**2
                  CONTENTS, ALLOC, LOAD, DATA
  7 .fini_array   00000004  08003c54  08003c54  00013c54  2**2
                  CONTENTS, ALLOC, LOAD, DATA
  8 .data         000000b4  20000000  08003c58  00020000  2**2
                  CONTENTS, ALLOC, LOAD, DATA
  9 .bss          000001b4  200000b4  08003d0c  000200b4  2**2
                  ALLOC
 10 ._user_heap_stack 00000600  20000268  08003d0c  00020268  2**0
                  ALLOC
 11 .ARM.attributes 00000029  00000000  00000000  000200b4  2**0
                  CONTENTS, READONLY
 12 .comment      00000050  00000000  00000000  000200dd  2**0
                  CONTENTS, READONLY
 13 .debug_frame  00000bcc  00000000  00000000  00020130  2**2
                  CONTENTS, READONLY, DEBUGGING, OCTETS

Disassembly of section .text:

0800010c <__do_global_dtors_aux>:
 800010c:	b510      	push	{r4, lr}
 800010e:	4c05      	ldr	r4, [pc, #20]	; (8000124 <__do_global_dtors_aux+0x18>)
 8000110:	7823      	ldrb	r3, [r4, #0]
 8000112:	b933      	cbnz	r3, 8000122 <__do_global_dtors_aux+0x16>
 8000114:	4b04      	ldr	r3, [pc, #16]	; (8000128 <__do_global_dtors_aux+0x1c>)
 8000116:	b113      	cbz	r3, 800011e <__do_global_dtors_aux+0x12>
 8000118:	4804      	ldr	r0, [pc, #16]	; (800012c <__do_global_dtors_aux+0x20>)
 800011a:	f3af 8000 	nop.w
 800011e:	2301      	movs	r3, #1
 8000120:	7023      	strb	r3, [r4, #0]
 8000122:	bd10      	pop	{r4, pc}
 8000124:	200000b4 	.word	0x200000b4
 8000128:	00000000 	.word	0x00000000
 800012c:	08003234 	.word	0x08003234

08000130 <frame_dummy>:
 8000130:	b508      	push	{r3, lr}
 8000132:	4b03      	ldr	r3, [pc, #12]	; (8000140 <frame_dummy+0x10>)
 8000134:	b11b      	cbz	r3, 800013e <frame_dummy+0xe>
 8000136:	4903      	ldr	r1, [pc, #12]	; (8000144 <frame_dummy+0x14>)
 8000138:	4803      	ldr	r0, [pc, #12]	; (8000148 <frame_dummy+0x18>)
 800013a:	f3af 8000 	nop.w
 800013e:	bd08      	pop	{r3, pc}
 8000140:	00000000 	.word	0x00000000
 8000144:	200000b8 	.word	0x200000b8
 8000148:	08003234 	.word	0x08003234

0800014c <strlen>:
 800014c:	4603      	mov	r3, r0
 800014e:	f813 2b01 	ldrb.w	r2, [r3], #1
 8000152:	2a00      	cmp	r2, #0
 8000154:	d1fb      	bne.n	800014e <strlen+0x2>
 8000156:	1a18      	subs	r0, r3, r0
 8000158:	3801      	subs	r0, #1
 800015a:	4770      	bx	lr

0800015c <ST7735_WriteCommand>:
 800015c:	b507      	push	{r0, r1, r2, lr}
 800015e:	2200      	movs	r2, #0
 8000160:	f88d 0007 	strb.w	r0, [sp, #7]
 8000164:	f44f 5100 	mov.w	r1, #8192	; 0x2000
 8000168:	4806      	ldr	r0, [pc, #24]	; (8000184 <ST7735_WriteCommand+0x28>)
 800016a:	f000 ff9b 	bl	80010a4 <HAL_GPIO_WritePin>
 800016e:	f04f 33ff 	mov.w	r3, #4294967295
 8000172:	2201      	movs	r2, #1
 8000174:	f10d 0107 	add.w	r1, sp, #7
 8000178:	4803      	ldr	r0, [pc, #12]	; (8000188 <ST7735_WriteCommand+0x2c>)
 800017a:	f001 fc43 	bl	8001a04 <HAL_SPI_Transmit>
 800017e:	b003      	add	sp, #12
 8000180:	f85d fb04 	ldr.w	pc, [sp], #4
 8000184:	40010c00 	.word	0x40010c00
 8000188:	200000e8 	.word	0x200000e8

0800018c <ST7735_WriteData>:
 800018c:	b570      	push	{r4, r5, r6, lr}
 800018e:	4604      	mov	r4, r0
 8000190:	460d      	mov	r5, r1
 8000192:	2201      	movs	r2, #1
 8000194:	f44f 5100 	mov.w	r1, #8192	; 0x2000
 8000198:	4805      	ldr	r0, [pc, #20]	; (80001b0 <ST7735_WriteData+0x24>)
 800019a:	f000 ff83 	bl	80010a4 <HAL_GPIO_WritePin>
 800019e:	4621      	mov	r1, r4
 80001a0:	b2aa      	uxth	r2, r5
 80001a2:	f04f 33ff 	mov.w	r3, #4294967295
 80001a6:	e8bd 4070 	ldmia.w	sp!, {r4, r5, r6, lr}
 80001aa:	4802      	ldr	r0, [pc, #8]	; (80001b4 <ST7735_WriteData+0x28>)
 80001ac:	f001 bc2a 	b.w	8001a04 <HAL_SPI_Transmit>
 80001b0:	40010c00 	.word	0x40010c00
 80001b4:	200000e8 	.word	0x200000e8

080001b8 <ST7735_SetAddressWindow>:
 80001b8:	b5f7      	push	{r0, r1, r2, r4, r5, r6, r7, lr}
 80001ba:	4607      	mov	r7, r0
 80001bc:	202a      	movs	r0, #42	; 0x2a
 80001be:	4616      	mov	r6, r2
 80001c0:	460d      	mov	r5, r1
 80001c2:	461c      	mov	r4, r3
 80001c4:	f7ff ffca 	bl	800015c <ST7735_WriteCommand>
 80001c8:	2104      	movs	r1, #4
 80001ca:	2300      	movs	r3, #0
 80001cc:	eb0d 0001 	add.w	r0, sp, r1
 80001d0:	3702      	adds	r7, #2
 80001d2:	3602      	adds	r6, #2
 80001d4:	f88d 3004 	strb.w	r3, [sp, #4]
 80001d8:	f88d 3006 	strb.w	r3, [sp, #6]
 80001dc:	f88d 7005 	strb.w	r7, [sp, #5]
 80001e0:	f88d 6007 	strb.w	r6, [sp, #7]
 80001e4:	f7ff ffd2 	bl	800018c <ST7735_WriteData>
 80001e8:	202b      	movs	r0, #43	; 0x2b
 80001ea:	f7ff ffb7 	bl	800015c <ST7735_WriteCommand>
 80001ee:	2104      	movs	r1, #4
 80001f0:	3501      	adds	r5, #1
 80001f2:	eb0d 0001 	add.w	r0, sp, r1
 80001f6:	3401      	adds	r4, #1
 80001f8:	f88d 5005 	strb.w	r5, [sp, #5]
 80001fc:	f88d 4007 	strb.w	r4, [sp, #7]
 8000200:	f7ff ffc4 	bl	800018c <ST7735_WriteData>
 8000204:	202c      	movs	r0, #44	; 0x2c
 8000206:	f7ff ffa9 	bl	800015c <ST7735_WriteCommand>
 800020a:	b003      	add	sp, #12
 800020c:	bdf0      	pop	{r4, r5, r6, r7, pc}
	...

08000210 <ST7735_DrawPixel>:
 8000210:	b5f7      	push	{r0, r1, r2, r4, r5, r6, r7, lr}
 8000212:	4604      	mov	r4, r0
 8000214:	460d      	mov	r5, r1
 8000216:	4616      	mov	r6, r2
 8000218:	4f0f      	ldr	r7, [pc, #60]	; (8000258 <ST7735_DrawPixel+0x48>)
 800021a:	2200      	movs	r2, #0
 800021c:	4638      	mov	r0, r7
 800021e:	f44f 4180 	mov.w	r1, #16384	; 0x4000
 8000222:	f000 ff3f 	bl	80010a4 <HAL_GPIO_WritePin>
 8000226:	b2e0      	uxtb	r0, r4
 8000228:	b2e9      	uxtb	r1, r5
 800022a:	1c4b      	adds	r3, r1, #1
 800022c:	1c42      	adds	r2, r0, #1
 800022e:	b2d2      	uxtb	r2, r2
 8000230:	b2db      	uxtb	r3, r3
 8000232:	f7ff ffc1 	bl	80001b8 <ST7735_SetAddressWindow>
 8000236:	0a33      	lsrs	r3, r6, #8
 8000238:	a801      	add	r0, sp, #4
 800023a:	2102      	movs	r1, #2
 800023c:	f88d 3004 	strb.w	r3, [sp, #4]
 8000240:	f88d 6005 	strb.w	r6, [sp, #5]
 8000244:	f7ff ffa2 	bl	800018c <ST7735_WriteData>
 8000248:	2201      	movs	r2, #1
 800024a:	f44f 4180 	mov.w	r1, #16384	; 0x4000
 800024e:	4638      	mov	r0, r7
 8000250:	f000 ff28 	bl	80010a4 <HAL_GPIO_WritePin>
 8000254:	b003      	add	sp, #12
 8000256:	bdf0      	pop	{r4, r5, r6, r7, pc}
 8000258:	40010c00 	.word	0x40010c00

0800025c <ST7735_Init>:
 800025c:	b5f8      	push	{r3, r4, r5, r6, r7, lr}
 800025e:	2200      	movs	r2, #0
 8000260:	f44f 4180 	mov.w	r1, #16384	; 0x4000
 8000264:	481c      	ldr	r0, [pc, #112]	; (80002d8 <ST7735_Init+0x7c>)
 8000266:	f000 ff1d 	bl	80010a4 <HAL_GPIO_WritePin>
 800026a:	2200      	movs	r2, #0
 800026c:	f44f 5180 	mov.w	r1, #4096	; 0x1000
 8000270:	4819      	ldr	r0, [pc, #100]	; (80002d8 <ST7735_Init+0x7c>)
 8000272:	f000 ff17 	bl	80010a4 <HAL_GPIO_WritePin>
 8000276:	2014      	movs	r0, #20
 8000278:	f000 fdca 	bl	8000e10 <HAL_Delay>
 800027c:	2201      	movs	r2, #1
 800027e:	f44f 5180 	mov.w	r1, #4096	; 0x1000
 8000282:	4815      	ldr	r0, [pc, #84]	; (80002d8 <ST7735_Init+0x7c>)
 8000284:	f000 ff0e 	bl	80010a4 <HAL_GPIO_WritePin>
 8000288:	2510      	movs	r5, #16
 800028a:	4e14      	ldr	r6, [pc, #80]	; (80002dc <ST7735_Init+0x80>)
 800028c:	3d01      	subs	r5, #1
 800028e:	f015 05ff 	ands.w	r5, r5, #255	; 0xff
 8000292:	d107      	bne.n	80002a4 <ST7735_Init+0x48>
 8000294:	e8bd 40f8 	ldmia.w	sp!, {r3, r4, r5, r6, r7, lr}
 8000298:	2201      	movs	r2, #1
 800029a:	f44f 4180 	mov.w	r1, #16384	; 0x4000
 800029e:	480e      	ldr	r0, [pc, #56]	; (80002d8 <ST7735_Init+0x7c>)
 80002a0:	f000 bf00 	b.w	80010a4 <HAL_GPIO_WritePin>
 80002a4:	4634      	mov	r4, r6
 80002a6:	f814 0b02 	ldrb.w	r0, [r4], #2
 80002aa:	f7ff ff57 	bl	800015c <ST7735_WriteCommand>
 80002ae:	7876      	ldrb	r6, [r6, #1]
 80002b0:	f016 077f 	ands.w	r7, r6, #127	; 0x7f
 80002b4:	d004      	beq.n	80002c0 <ST7735_Init+0x64>
 80002b6:	4620      	mov	r0, r4
 80002b8:	4639      	mov	r1, r7
 80002ba:	f7ff ff67 	bl	800018c <ST7735_WriteData>
 80002be:	443c      	add	r4, r7
 80002c0:	0633      	lsls	r3, r6, #24
 80002c2:	d507      	bpl.n	80002d4 <ST7735_Init+0x78>
 80002c4:	f814 0b01 	ldrb.w	r0, [r4], #1
 80002c8:	28ff      	cmp	r0, #255	; 0xff
 80002ca:	bf08      	it	eq
 80002cc:	f44f 70fa 	moveq.w	r0, #500	; 0x1f4
 80002d0:	f000 fd9e 	bl	8000e10 <HAL_Delay>
 80002d4:	4626      	mov	r6, r4
 80002d6:	e7d9      	b.n	800028c <ST7735_Init+0x30>
 80002d8:	40010c00 	.word	0x40010c00
 80002dc:	080039b9 	.word	0x080039b9

080002e0 <ST7735_DrawString>:
 80002e0:	b082      	sub	sp, #8
 80002e2:	e92d 4ff0 	stmdb	sp!, {r4, r5, r6, r7, r8, r9, sl, fp, lr}
 80002e6:	4615      	mov	r5, r2
 80002e8:	b089      	sub	sp, #36	; 0x24
 80002ea:	f8bd a058 	ldrh.w	sl, [sp, #88]	; 0x58
 80002ee:	9313      	str	r3, [sp, #76]	; 0x4c
 80002f0:	f8bd 3054 	ldrh.w	r3, [sp, #84]	; 0x54
 80002f4:	9105      	str	r1, [sp, #20]
 80002f6:	4606      	mov	r6, r0
 80002f8:	2200      	movs	r2, #0
 80002fa:	f44f 4180 	mov.w	r1, #16384	; 0x4000
 80002fe:	482c      	ldr	r0, [pc, #176]	; (80003b0 <ST7735_DrawString+0xd0>)
 8000300:	9301      	str	r3, [sp, #4]
 8000302:	f000 fecf 	bl	80010a4 <HAL_GPIO_WritePin>
 8000306:	ea4f 231a 	mov.w	r3, sl, lsr #8
 800030a:	9304      	str	r3, [sp, #16]
 800030c:	9b01      	ldr	r3, [sp, #4]
 800030e:	3d01      	subs	r5, #1
 8000310:	0a1b      	lsrs	r3, r3, #8
 8000312:	9303      	str	r3, [sp, #12]
 8000314:	f815 4f01 	ldrb.w	r4, [r5, #1]!
 8000318:	b94c      	cbnz	r4, 800032e <ST7735_DrawString+0x4e>
 800031a:	2201      	movs	r2, #1
 800031c:	f44f 4180 	mov.w	r1, #16384	; 0x4000
 8000320:	4823      	ldr	r0, [pc, #140]	; (80003b0 <ST7735_DrawString+0xd0>)
 8000322:	b009      	add	sp, #36	; 0x24
 8000324:	e8bd 4ff0 	ldmia.w	sp!, {r4, r5, r6, r7, r8, r9, sl, fp, lr}
 8000328:	b002      	add	sp, #8
 800032a:	f000 bebb 	b.w	80010a4 <HAL_GPIO_WritePin>
 800032e:	f89d 804d 	ldrb.w	r8, [sp, #77]	; 0x4d
 8000332:	f89d 704c 	ldrb.w	r7, [sp, #76]	; 0x4c
 8000336:	3c20      	subs	r4, #32
 8000338:	f89d 1014 	ldrb.w	r1, [sp, #20]
 800033c:	fb08 f404 	mul.w	r4, r8, r4
 8000340:	b2f0      	uxtb	r0, r6
 8000342:	f108 33ff 	add.w	r3, r8, #4294967295
 8000346:	1e7a      	subs	r2, r7, #1
 8000348:	f8dd b050 	ldr.w	fp, [sp, #80]	; 0x50
 800034c:	440b      	add	r3, r1
 800034e:	4402      	add	r2, r0
 8000350:	b2db      	uxtb	r3, r3
 8000352:	b2d2      	uxtb	r2, r2
 8000354:	eb0b 0444 	add.w	r4, fp, r4, lsl #1
 8000358:	f7ff ff2e 	bl	80001b8 <ST7735_SetAddressWindow>
 800035c:	f04f 0b00 	mov.w	fp, #0
 8000360:	45d8      	cmp	r8, fp
 8000362:	d802      	bhi.n	800036a <ST7735_DrawString+0x8a>
 8000364:	443e      	add	r6, r7
 8000366:	b2b6      	uxth	r6, r6
 8000368:	e7d4      	b.n	8000314 <ST7735_DrawString+0x34>
 800036a:	f04f 0900 	mov.w	r9, #0
 800036e:	f834 3b02 	ldrh.w	r3, [r4], #2
 8000372:	9302      	str	r3, [sp, #8]
 8000374:	45b9      	cmp	r9, r7
 8000376:	d302      	bcc.n	800037e <ST7735_DrawString+0x9e>
 8000378:	f10b 0b01 	add.w	fp, fp, #1
 800037c:	e7f0      	b.n	8000360 <ST7735_DrawString+0x80>
 800037e:	9b02      	ldr	r3, [sp, #8]
 8000380:	a807      	add	r0, sp, #28
 8000382:	fa03 f109 	lsl.w	r1, r3, r9
 8000386:	040b      	lsls	r3, r1, #16
 8000388:	bf49      	itett	mi
 800038a:	9b03      	ldrmi	r3, [sp, #12]
 800038c:	9b04      	ldrpl	r3, [sp, #16]
 800038e:	f88d 301c 	strbmi.w	r3, [sp, #28]
 8000392:	9b01      	ldrmi	r3, [sp, #4]
 8000394:	f04f 0102 	mov.w	r1, #2
 8000398:	bf4e      	itee	mi
 800039a:	f88d 301d 	strbmi.w	r3, [sp, #29]
 800039e:	f88d 301c 	strbpl.w	r3, [sp, #28]
 80003a2:	f88d a01d 	strbpl.w	sl, [sp, #29]
 80003a6:	f109 0901 	add.w	r9, r9, #1
 80003aa:	f7ff feef 	bl	800018c <ST7735_WriteData>
 80003ae:	e7e1      	b.n	8000374 <ST7735_DrawString+0x94>
 80003b0:	40010c00 	.word	0x40010c00

080003b4 <ST7735_FillScreen>:
 80003b4:	b537      	push	{r0, r1, r2, r4, r5, lr}
 80003b6:	4604      	mov	r4, r0
 80003b8:	2200      	movs	r2, #0
 80003ba:	f44f 4180 	mov.w	r1, #16384	; 0x4000
 80003be:	4813      	ldr	r0, [pc, #76]	; (800040c <ST7735_FillScreen+0x58>)
 80003c0:	f000 fe70 	bl	80010a4 <HAL_GPIO_WritePin>
 80003c4:	2100      	movs	r1, #0
 80003c6:	239f      	movs	r3, #159	; 0x9f
 80003c8:	4608      	mov	r0, r1
 80003ca:	227f      	movs	r2, #127	; 0x7f
 80003cc:	f7ff fef4 	bl	80001b8 <ST7735_SetAddressWindow>
 80003d0:	0a23      	lsrs	r3, r4, #8
 80003d2:	2201      	movs	r2, #1
 80003d4:	f44f 5100 	mov.w	r1, #8192	; 0x2000
 80003d8:	480c      	ldr	r0, [pc, #48]	; (800040c <ST7735_FillScreen+0x58>)
 80003da:	f88d 3004 	strb.w	r3, [sp, #4]
 80003de:	f88d 4005 	strb.w	r4, [sp, #5]
 80003e2:	25a1      	movs	r5, #161	; 0xa1
 80003e4:	f000 fe5e 	bl	80010a4 <HAL_GPIO_WritePin>
 80003e8:	2481      	movs	r4, #129	; 0x81
 80003ea:	2102      	movs	r1, #2
 80003ec:	a801      	add	r0, sp, #4
 80003ee:	f7ff fecd 	bl	800018c <ST7735_WriteData>
 80003f2:	3c01      	subs	r4, #1
 80003f4:	d1f9      	bne.n	80003ea <ST7735_FillScreen+0x36>
 80003f6:	3d01      	subs	r5, #1
 80003f8:	d1f6      	bne.n	80003e8 <ST7735_FillScreen+0x34>
 80003fa:	2201      	movs	r2, #1
 80003fc:	f44f 4180 	mov.w	r1, #16384	; 0x4000
 8000400:	4802      	ldr	r0, [pc, #8]	; (800040c <ST7735_FillScreen+0x58>)
 8000402:	f000 fe4f 	bl	80010a4 <HAL_GPIO_WritePin>
 8000406:	b003      	add	sp, #12
 8000408:	bd30      	pop	{r4, r5, pc}
 800040a:	bf00      	nop
 800040c:	40010c00 	.word	0x40010c00

08000410 <ST7735_DrawLine>:
 8000410:	e92d 47f0 	stmdb	sp!, {r4, r5, r6, r7, r8, r9, sl, lr}
 8000414:	4605      	mov	r5, r0
 8000416:	460c      	mov	r4, r1
 8000418:	4690      	mov	r8, r2
 800041a:	461f      	mov	r7, r3
 800041c:	4606      	mov	r6, r0
 800041e:	f8bd 9020 	ldrh.w	r9, [sp, #32]
 8000422:	fa1f fa81 	uxth.w	sl, r1
 8000426:	45b0      	cmp	r8, r6
 8000428:	dc04      	bgt.n	8000434 <ST7735_DrawLine+0x24>
 800042a:	b2ad      	uxth	r5, r5
 800042c:	42a7      	cmp	r7, r4
 800042e:	dc08      	bgt.n	8000442 <ST7735_DrawLine+0x32>
 8000430:	e8bd 87f0 	ldmia.w	sp!, {r4, r5, r6, r7, r8, r9, sl, pc}
 8000434:	b2b0      	uxth	r0, r6
 8000436:	464a      	mov	r2, r9
 8000438:	4651      	mov	r1, sl
 800043a:	f7ff fee9 	bl	8000210 <ST7735_DrawPixel>
 800043e:	3601      	adds	r6, #1
 8000440:	e7f1      	b.n	8000426 <ST7735_DrawLine+0x16>
 8000442:	b2a1      	uxth	r1, r4
 8000444:	464a      	mov	r2, r9
 8000446:	4628      	mov	r0, r5
 8000448:	f7ff fee2 	bl	8000210 <ST7735_DrawPixel>
 800044c:	3401      	adds	r4, #1
 800044e:	e7ed      	b.n	800042c <ST7735_DrawLine+0x1c>

08000450 <WriteSize>:
 8000450:	b570      	push	{r4, r5, r6, lr}
 8000452:	4b15      	ldr	r3, [pc, #84]	; (80004a8 <WriteSize+0x58>)
 8000454:	4d15      	ldr	r5, [pc, #84]	; (80004ac <WriteSize+0x5c>)
 8000456:	681c      	ldr	r4, [r3, #0]
 8000458:	b086      	sub	sp, #24
 800045a:	4b15      	ldr	r3, [pc, #84]	; (80004b0 <WriteSize+0x60>)
 800045c:	b289      	uxth	r1, r1
 800045e:	b282      	uxth	r2, r0
 8000460:	b964      	cbnz	r4, 800047c <WriteSize+0x2c>
 8000462:	e9cd 1201 	strd	r1, r2, [sp, #4]
 8000466:	685a      	ldr	r2, [r3, #4]
 8000468:	214e      	movs	r1, #78	; 0x4e
 800046a:	9200      	str	r2, [sp, #0]
 800046c:	2003      	movs	r0, #3
 800046e:	681b      	ldr	r3, [r3, #0]
 8000470:	4a10      	ldr	r2, [pc, #64]	; (80004b4 <WriteSize+0x64>)
 8000472:	f7ff ff35 	bl	80002e0 <ST7735_DrawString>
 8000476:	702c      	strb	r4, [r5, #0]
 8000478:	b006      	add	sp, #24
 800047a:	bd70      	pop	{r4, r5, r6, pc}
 800047c:	e9cd 1201 	strd	r1, r2, [sp, #4]
 8000480:	4e0d      	ldr	r6, [pc, #52]	; (80004b8 <WriteSize+0x68>)
 8000482:	685a      	ldr	r2, [r3, #4]
 8000484:	6830      	ldr	r0, [r6, #0]
 8000486:	9200      	str	r2, [sp, #0]
 8000488:	9004      	str	r0, [sp, #16]
 800048a:	7930      	ldrb	r0, [r6, #4]
 800048c:	681b      	ldr	r3, [r3, #0]
 800048e:	f88d 0014 	strb.w	r0, [sp, #20]
 8000492:	214e      	movs	r1, #78	; 0x4e
 8000494:	2003      	movs	r0, #3
 8000496:	3430      	adds	r4, #48	; 0x30
 8000498:	aa04      	add	r2, sp, #16
 800049a:	f88d 4010 	strb.w	r4, [sp, #16]
 800049e:	f7ff ff1f 	bl	80002e0 <ST7735_DrawString>
 80004a2:	2301      	movs	r3, #1
 80004a4:	702b      	strb	r3, [r5, #0]
 80004a6:	e7e7      	b.n	8000478 <WriteSize+0x28>
 80004a8:	2000018c 	.word	0x2000018c
 80004ac:	200000d0 	.word	0x200000d0
 80004b0:	20000000 	.word	0x20000000
 80004b4:	080039f3 	.word	0x080039f3
 80004b8:	080039f8 	.word	0x080039f8

080004bc <ShowTable>:
 80004bc:	2202      	movs	r2, #2
 80004be:	e92d 4ff0 	stmdb	sp!, {r4, r5, r6, r7, r8, r9, sl, fp, lr}
 80004c2:	4b46      	ldr	r3, [pc, #280]	; (80005dc <ShowTable+0x120>)
 80004c4:	b285      	uxth	r5, r0
 80004c6:	4628      	mov	r0, r5
 80004c8:	b08b      	sub	sp, #44	; 0x2c
 80004ca:	468b      	mov	fp, r1
 80004cc:	701a      	strb	r2, [r3, #0]
 80004ce:	2600      	movs	r6, #0
 80004d0:	f7ff ff70 	bl	80003b4 <ST7735_FillScreen>
 80004d4:	4f42      	ldr	r7, [pc, #264]	; (80005e0 <ShowTable+0x124>)
 80004d6:	f8df 910c 	ldr.w	r9, [pc, #268]	; 80005e4 <ShowTable+0x128>
 80004da:	f1a7 0804 	sub.w	r8, r7, #4
 80004de:	f8d8 3000 	ldr.w	r3, [r8]
 80004e2:	42b3      	cmp	r3, r6
 80004e4:	dc26      	bgt.n	8000534 <ShowTable+0x78>
 80004e6:	2601      	movs	r6, #1
 80004e8:	fa1f f48b 	uxth.w	r4, fp
 80004ec:	f8d8 3000 	ldr.w	r3, [r8]
 80004f0:	42b3      	cmp	r3, r6
 80004f2:	dc53      	bgt.n	800059c <ShowTable+0xe0>
 80004f4:	4e3c      	ldr	r6, [pc, #240]	; (80005e8 <ShowTable+0x12c>)
 80004f6:	aa05      	add	r2, sp, #20
 80004f8:	6830      	ldr	r0, [r6, #0]
 80004fa:	6871      	ldr	r1, [r6, #4]
 80004fc:	c203      	stmia	r2!, {r0, r1}
 80004fe:	8931      	ldrh	r1, [r6, #8]
 8000500:	2003      	movs	r0, #3
 8000502:	8011      	strh	r1, [r2, #0]
 8000504:	f103 0230 	add.w	r2, r3, #48	; 0x30
 8000508:	e9cd 4501 	strd	r4, r5, [sp, #4]
 800050c:	b2d2      	uxtb	r2, r2
 800050e:	f88d 201c 	strb.w	r2, [sp, #28]
 8000512:	f88d 201a 	strb.w	r2, [sp, #26]
 8000516:	4a33      	ldr	r2, [pc, #204]	; (80005e4 <ShowTable+0x128>)
 8000518:	ebc3 1303 	rsb	r3, r3, r3, lsl #4
 800051c:	f103 0112 	add.w	r1, r3, #18
 8000520:	6853      	ldr	r3, [r2, #4]
 8000522:	b289      	uxth	r1, r1
 8000524:	9300      	str	r3, [sp, #0]
 8000526:	6813      	ldr	r3, [r2, #0]
 8000528:	aa05      	add	r2, sp, #20
 800052a:	f7ff fed9 	bl	80002e0 <ST7735_DrawString>
 800052e:	b00b      	add	sp, #44	; 0x2c
 8000530:	e8bd 8ff0 	ldmia.w	sp!, {r4, r5, r6, r7, r8, r9, sl, fp, pc}
 8000534:	46ba      	mov	sl, r7
 8000536:	2000      	movs	r0, #0
 8000538:	f04f 0e0a 	mov.w	lr, #10
 800053c:	a905      	add	r1, sp, #20
 800053e:	f85a 4b04 	ldr.w	r4, [sl], #4
 8000542:	3001      	adds	r0, #1
 8000544:	fb94 fcfe 	sdiv	ip, r4, lr
 8000548:	f10c 0230 	add.w	r2, ip, #48	; 0x30
 800054c:	700a      	strb	r2, [r1, #0]
 800054e:	f04f 0220 	mov.w	r2, #32
 8000552:	fb0e 441c 	mls	r4, lr, ip, r4
 8000556:	4283      	cmp	r3, r0
 8000558:	f104 0430 	add.w	r4, r4, #48	; 0x30
 800055c:	704c      	strb	r4, [r1, #1]
 800055e:	708a      	strb	r2, [r1, #2]
 8000560:	f101 0103 	add.w	r1, r1, #3
 8000564:	d1eb      	bne.n	800053e <ShowTable+0x82>
 8000566:	2100      	movs	r1, #0
 8000568:	eb03 0343 	add.w	r3, r3, r3, lsl #1
 800056c:	3328      	adds	r3, #40	; 0x28
 800056e:	446b      	add	r3, sp
 8000570:	f803 1c15 	strb.w	r1, [r3, #-21]
 8000574:	fa1f f38b 	uxth.w	r3, fp
 8000578:	ebc6 1106 	rsb	r1, r6, r6, lsl #4
 800057c:	9301      	str	r3, [sp, #4]
 800057e:	f8d9 3004 	ldr.w	r3, [r9, #4]
 8000582:	3103      	adds	r1, #3
 8000584:	9300      	str	r3, [sp, #0]
 8000586:	2003      	movs	r0, #3
 8000588:	f8d9 3000 	ldr.w	r3, [r9]
 800058c:	9502      	str	r5, [sp, #8]
 800058e:	aa05      	add	r2, sp, #20
 8000590:	b289      	uxth	r1, r1
 8000592:	f7ff fea5 	bl	80002e0 <ST7735_DrawString>
 8000596:	3601      	adds	r6, #1
 8000598:	371c      	adds	r7, #28
 800059a:	e7a0      	b.n	80004de <ShowTable+0x22>
 800059c:	b2b7      	uxth	r7, r6
 800059e:	eb07 02c7 	add.w	r2, r7, r7, lsl #3
 80005a2:	ebc3 03c3 	rsb	r3, r3, r3, lsl #3
 80005a6:	0052      	lsls	r2, r2, #1
 80005a8:	005b      	lsls	r3, r3, #1
 80005aa:	b212      	sxth	r2, r2
 80005ac:	3304      	adds	r3, #4
 80005ae:	4610      	mov	r0, r2
 80005b0:	2100      	movs	r1, #0
 80005b2:	b21b      	sxth	r3, r3
 80005b4:	9400      	str	r4, [sp, #0]
 80005b6:	f7ff ff2b 	bl	8000410 <ST7735_DrawLine>
 80005ba:	f8d8 2000 	ldr.w	r2, [r8]
 80005be:	ebc7 1707 	rsb	r7, r7, r7, lsl #4
 80005c2:	eb02 02c2 	add.w	r2, r2, r2, lsl #3
 80005c6:	0052      	lsls	r2, r2, #1
 80005c8:	b23b      	sxth	r3, r7
 80005ca:	3202      	adds	r2, #2
 80005cc:	4619      	mov	r1, r3
 80005ce:	2000      	movs	r0, #0
 80005d0:	9400      	str	r4, [sp, #0]
 80005d2:	b212      	sxth	r2, r2
 80005d4:	f7ff ff1c 	bl	8000410 <ST7735_DrawLine>
 80005d8:	3601      	adds	r6, #1
 80005da:	e787      	b.n	80004ec <ShowTable+0x30>
 80005dc:	200000d0 	.word	0x200000d0
 80005e0:	20000190 	.word	0x20000190
 80005e4:	20000000 	.word	0x20000000
 80005e8:	080039fd 	.word	0x080039fd

080005ec <ResetScreen>:
 80005ec:	e92d 41ff 	stmdb	sp!, {r0, r1, r2, r3, r4, r5, r6, r7, r8, lr}
 80005f0:	b285      	uxth	r5, r0
 80005f2:	460f      	mov	r7, r1
 80005f4:	4606      	mov	r6, r0
 80005f6:	4628      	mov	r0, r5
 80005f8:	f7ff fedc 	bl	80003b4 <ST7735_FillScreen>
 80005fc:	2103      	movs	r1, #3
 80005fe:	4c18      	ldr	r4, [pc, #96]	; (8000660 <ResetScreen+0x74>)
 8000600:	fa1f f887 	uxth.w	r8, r7
 8000604:	6863      	ldr	r3, [r4, #4]
 8000606:	4608      	mov	r0, r1
 8000608:	9300      	str	r3, [sp, #0]
 800060a:	e9cd 8501 	strd	r8, r5, [sp, #4]
 800060e:	6823      	ldr	r3, [r4, #0]
 8000610:	4a14      	ldr	r2, [pc, #80]	; (8000664 <ResetScreen+0x78>)
 8000612:	f7ff fe65 	bl	80002e0 <ST7735_DrawString>
 8000616:	6863      	ldr	r3, [r4, #4]
 8000618:	2112      	movs	r1, #18
 800061a:	9300      	str	r3, [sp, #0]
 800061c:	2003      	movs	r0, #3
 800061e:	6823      	ldr	r3, [r4, #0]
 8000620:	e9cd 8501 	strd	r8, r5, [sp, #4]
 8000624:	4a10      	ldr	r2, [pc, #64]	; (8000668 <ResetScreen+0x7c>)
 8000626:	f7ff fe5b 	bl	80002e0 <ST7735_DrawString>
 800062a:	6863      	ldr	r3, [r4, #4]
 800062c:	2121      	movs	r1, #33	; 0x21
 800062e:	9300      	str	r3, [sp, #0]
 8000630:	2003      	movs	r0, #3
 8000632:	6823      	ldr	r3, [r4, #0]
 8000634:	e9cd 8501 	strd	r8, r5, [sp, #4]
 8000638:	4a0c      	ldr	r2, [pc, #48]	; (800066c <ResetScreen+0x80>)
 800063a:	f7ff fe51 	bl	80002e0 <ST7735_DrawString>
 800063e:	6863      	ldr	r3, [r4, #4]
 8000640:	213f      	movs	r1, #63	; 0x3f
 8000642:	9300      	str	r3, [sp, #0]
 8000644:	2003      	movs	r0, #3
 8000646:	e9cd 8501 	strd	r8, r5, [sp, #4]
 800064a:	6823      	ldr	r3, [r4, #0]
 800064c:	4a08      	ldr	r2, [pc, #32]	; (8000670 <ResetScreen+0x84>)
 800064e:	f7ff fe47 	bl	80002e0 <ST7735_DrawString>
 8000652:	4639      	mov	r1, r7
 8000654:	4630      	mov	r0, r6
 8000656:	b004      	add	sp, #16
 8000658:	e8bd 41f0 	ldmia.w	sp!, {r4, r5, r6, r7, r8, lr}
 800065c:	f7ff bef8 	b.w	8000450 <WriteSize>
 8000660:	20000000 	.word	0x20000000
 8000664:	08003a07 	.word	0x08003a07
 8000668:	08003a18 	.word	0x08003a18
 800066c:	08003a2a 	.word	0x08003a2a
 8000670:	08003a3f 	.word	0x08003a3f

08000674 <SizeChosed>:
 8000674:	b510      	push	{r4, lr}
 8000676:	460c      	mov	r4, r1
 8000678:	4907      	ldr	r1, [pc, #28]	; (8000698 <SizeChosed+0x24>)
 800067a:	6008      	str	r0, [r1, #0]
 800067c:	4619      	mov	r1, r3
 800067e:	4610      	mov	r0, r2
 8000680:	f7ff fee6 	bl	8000450 <WriteSize>
 8000684:	f000 fbbe 	bl	8000e04 <HAL_GetTick>
 8000688:	4601      	mov	r1, r0
 800068a:	4620      	mov	r0, r4
 800068c:	f000 fb04 	bl	8000c98 <FillTable>
 8000690:	2201      	movs	r2, #1
 8000692:	4b02      	ldr	r3, [pc, #8]	; (800069c <SizeChosed+0x28>)
 8000694:	701a      	strb	r2, [r3, #0]
 8000696:	bd10      	pop	{r4, pc}
 8000698:	2000018c 	.word	0x2000018c
 800069c:	200000d0 	.word	0x200000d0

080006a0 <OnStopPressed>:
 80006a0:	e92d 43f0 	stmdb	sp!, {r4, r5, r6, r7, r8, r9, lr}
 80006a4:	250c      	movs	r5, #12
 80006a6:	b0b7      	sub	sp, #220	; 0xdc
 80006a8:	4604      	mov	r4, r0
 80006aa:	f000 fbab 	bl	8000e04 <HAL_GetTick>
 80006ae:	4e46      	ldr	r6, [pc, #280]	; (80007c8 <OnStopPressed+0x128>)
 80006b0:	f8df 9118 	ldr.w	r9, [pc, #280]	; 80007cc <OnStopPressed+0x12c>
 80006b4:	6833      	ldr	r3, [r6, #0]
 80006b6:	1b04      	subs	r4, r0, r4
 80006b8:	1eda      	subs	r2, r3, #3
 80006ba:	436a      	muls	r2, r5
 80006bc:	f859 0002 	ldr.w	r0, [r9, r2]
 80006c0:	eb09 0102 	add.w	r1, r9, r2
 80006c4:	4420      	add	r0, r4
 80006c6:	f849 0002 	str.w	r0, [r9, r2]
 80006ca:	684a      	ldr	r2, [r1, #4]
 80006cc:	3201      	adds	r2, #1
 80006ce:	604a      	str	r2, [r1, #4]
 80006d0:	688a      	ldr	r2, [r1, #8]
 80006d2:	4294      	cmp	r4, r2
 80006d4:	dc26      	bgt.n	8000724 <OnStopPressed+0x84>
 80006d6:	461a      	mov	r2, r3
 80006d8:	493d      	ldr	r1, [pc, #244]	; (80007d0 <OnStopPressed+0x130>)
 80006da:	a81d      	add	r0, sp, #116	; 0x74
 80006dc:	f001 fbce 	bl	8001e7c <siprintf>
 80006e0:	a81d      	add	r0, sp, #116	; 0x74
 80006e2:	f7ff fd33 	bl	800014c <strlen>
 80006e6:	2364      	movs	r3, #100	; 0x64
 80006e8:	b282      	uxth	r2, r0
 80006ea:	a91d      	add	r1, sp, #116	; 0x74
 80006ec:	4839      	ldr	r0, [pc, #228]	; (80007d4 <OnStopPressed+0x134>)
 80006ee:	f001 fadc 	bl	8001caa <HAL_UART_Transmit>
 80006f2:	6833      	ldr	r3, [r6, #0]
 80006f4:	4f38      	ldr	r7, [pc, #224]	; (80007d8 <OnStopPressed+0x138>)
 80006f6:	3b03      	subs	r3, #3
 80006f8:	fb05 9303 	mla	r3, r5, r3, r9
 80006fc:	2532      	movs	r5, #50	; 0x32
 80006fe:	609c      	str	r4, [r3, #8]
 8000700:	2200      	movs	r2, #0
 8000702:	2180      	movs	r1, #128	; 0x80
 8000704:	4638      	mov	r0, r7
 8000706:	f000 fccd 	bl	80010a4 <HAL_GPIO_WritePin>
 800070a:	200f      	movs	r0, #15
 800070c:	f000 fb80 	bl	8000e10 <HAL_Delay>
 8000710:	2201      	movs	r2, #1
 8000712:	2180      	movs	r1, #128	; 0x80
 8000714:	4638      	mov	r0, r7
 8000716:	f000 fcc5 	bl	80010a4 <HAL_GPIO_WritePin>
 800071a:	2005      	movs	r0, #5
 800071c:	f000 fb78 	bl	8000e10 <HAL_Delay>
 8000720:	3d01      	subs	r5, #1
 8000722:	d1ed      	bne.n	8000700 <OnStopPressed+0x60>
 8000724:	f44f 757a 	mov.w	r5, #1000	; 0x3e8
 8000728:	fb94 f3f5 	sdiv	r3, r4, r5
 800072c:	273c      	movs	r7, #60	; 0x3c
 800072e:	f64e 2860 	movw	r8, #60000	; 0xea60
 8000732:	fb05 4213 	mls	r2, r5, r3, r4
 8000736:	9202      	str	r2, [sp, #8]
 8000738:	fb93 f2f7 	sdiv	r2, r3, r7
 800073c:	fb94 f4f8 	sdiv	r4, r4, r8
 8000740:	fb07 3312 	mls	r3, r7, r2, r3
 8000744:	9301      	str	r3, [sp, #4]
 8000746:	6833      	ldr	r3, [r6, #0]
 8000748:	4924      	ldr	r1, [pc, #144]	; (80007dc <OnStopPressed+0x13c>)
 800074a:	461a      	mov	r2, r3
 800074c:	9400      	str	r4, [sp, #0]
 800074e:	a804      	add	r0, sp, #16
 8000750:	f001 fb94 	bl	8001e7c <siprintf>
 8000754:	210c      	movs	r1, #12
 8000756:	6833      	ldr	r3, [r6, #0]
 8000758:	1eda      	subs	r2, r3, #3
 800075a:	434a      	muls	r2, r1
 800075c:	eb09 0102 	add.w	r1, r9, r2
 8000760:	6849      	ldr	r1, [r1, #4]
 8000762:	f859 2002 	ldr.w	r2, [r9, r2]
 8000766:	fb92 f2f1 	sdiv	r2, r2, r1
 800076a:	fb92 f1f5 	sdiv	r1, r2, r5
 800076e:	fb91 f0f7 	sdiv	r0, r1, r7
 8000772:	fb05 2511 	mls	r5, r5, r1, r2
 8000776:	fb92 f2f8 	sdiv	r2, r2, r8
 800077a:	fb07 1110 	mls	r1, r7, r0, r1
 800077e:	9200      	str	r2, [sp, #0]
 8000780:	9101      	str	r1, [sp, #4]
 8000782:	461a      	mov	r2, r3
 8000784:	4916      	ldr	r1, [pc, #88]	; (80007e0 <OnStopPressed+0x140>)
 8000786:	9502      	str	r5, [sp, #8]
 8000788:	a81d      	add	r0, sp, #116	; 0x74
 800078a:	f001 fb77 	bl	8001e7c <siprintf>
 800078e:	a804      	add	r0, sp, #16
 8000790:	f7ff fcdc 	bl	800014c <strlen>
 8000794:	a904      	add	r1, sp, #16
 8000796:	b282      	uxth	r2, r0
 8000798:	2364      	movs	r3, #100	; 0x64
 800079a:	480e      	ldr	r0, [pc, #56]	; (80007d4 <OnStopPressed+0x134>)
 800079c:	f001 fa85 	bl	8001caa <HAL_UART_Transmit>
 80007a0:	a81d      	add	r0, sp, #116	; 0x74
 80007a2:	f7ff fcd3 	bl	800014c <strlen>
 80007a6:	a91d      	add	r1, sp, #116	; 0x74
 80007a8:	b282      	uxth	r2, r0
 80007aa:	2364      	movs	r3, #100	; 0x64
 80007ac:	4809      	ldr	r0, [pc, #36]	; (80007d4 <OnStopPressed+0x134>)
 80007ae:	f001 fa7c 	bl	8001caa <HAL_UART_Transmit>
 80007b2:	2364      	movs	r3, #100	; 0x64
 80007b4:	2202      	movs	r2, #2
 80007b6:	490b      	ldr	r1, [pc, #44]	; (80007e4 <OnStopPressed+0x144>)
 80007b8:	4806      	ldr	r0, [pc, #24]	; (80007d4 <OnStopPressed+0x134>)
 80007ba:	f001 fa76 	bl	8001caa <HAL_UART_Transmit>
 80007be:	2300      	movs	r3, #0
 80007c0:	6033      	str	r3, [r6, #0]
 80007c2:	b037      	add	sp, #220	; 0xdc
 80007c4:	e8bd 83f0 	ldmia.w	sp!, {r4, r5, r6, r7, r8, r9, pc}
 80007c8:	2000018c 	.word	0x2000018c
 80007cc:	20000008 	.word	0x20000008
 80007d0:	08003a4c 	.word	0x08003a4c
 80007d4:	20000140 	.word	0x20000140
 80007d8:	40010c00 	.word	0x40010c00
 80007dc:	08003a6d 	.word	0x08003a6d
 80007e0:	08003a9b 	.word	0x08003a9b
 80007e4:	08003a6a 	.word	0x08003a6a

080007e8 <SystemClock_Config>:
 80007e8:	b530      	push	{r4, r5, lr}
 80007ea:	b095      	sub	sp, #84	; 0x54
 80007ec:	2224      	movs	r2, #36	; 0x24
 80007ee:	2100      	movs	r1, #0
 80007f0:	a80b      	add	r0, sp, #44	; 0x2c
 80007f2:	f001 facf 	bl	8001d94 <memset>
 80007f6:	2214      	movs	r2, #20
 80007f8:	2510      	movs	r5, #16
 80007fa:	2100      	movs	r1, #0
 80007fc:	eb0d 0002 	add.w	r0, sp, r2
 8000800:	f001 fac8 	bl	8001d94 <memset>
 8000804:	2100      	movs	r1, #0
 8000806:	462a      	mov	r2, r5
 8000808:	a801      	add	r0, sp, #4
 800080a:	f001 fac3 	bl	8001d94 <memset>
 800080e:	2401      	movs	r4, #1
 8000810:	230a      	movs	r3, #10
 8000812:	a80a      	add	r0, sp, #40	; 0x28
 8000814:	e9cd 450e 	strd	r4, r5, [sp, #56]	; 0x38
 8000818:	930a      	str	r3, [sp, #40]	; 0x28
 800081a:	9410      	str	r4, [sp, #64]	; 0x40
 800081c:	f000 fc4e 	bl	80010bc <HAL_RCC_OscConfig>
 8000820:	4601      	mov	r1, r0
 8000822:	b108      	cbz	r0, 8000828 <SystemClock_Config+0x40>
 8000824:	b672      	cpsid	i
 8000826:	e7fe      	b.n	8000826 <SystemClock_Config+0x3e>
 8000828:	230f      	movs	r3, #15
 800082a:	e9cd 3005 	strd	r3, r0, [sp, #20]
 800082e:	f44f 6380 	mov.w	r3, #1024	; 0x400
 8000832:	9007      	str	r0, [sp, #28]
 8000834:	e9cd 3008 	strd	r3, r0, [sp, #32]
 8000838:	a805      	add	r0, sp, #20
 800083a:	f000 fe01 	bl	8001440 <HAL_RCC_ClockConfig>
 800083e:	b108      	cbz	r0, 8000844 <SystemClock_Config+0x5c>
 8000840:	b672      	cpsid	i
 8000842:	e7fe      	b.n	8000842 <SystemClock_Config+0x5a>
 8000844:	f44f 7300 	mov.w	r3, #512	; 0x200
 8000848:	a801      	add	r0, sp, #4
 800084a:	9401      	str	r4, [sp, #4]
 800084c:	9302      	str	r3, [sp, #8]
 800084e:	f000 feb3 	bl	80015b8 <HAL_RCCEx_PeriphCLKConfig>
 8000852:	b108      	cbz	r0, 8000858 <SystemClock_Config+0x70>
 8000854:	b672      	cpsid	i
 8000856:	e7fe      	b.n	8000856 <SystemClock_Config+0x6e>
 8000858:	b015      	add	sp, #84	; 0x54
 800085a:	bd30      	pop	{r4, r5, pc}

0800085c <main>:
 800085c:	e92d 41f0 	stmdb	sp!, {r4, r5, r6, r7, r8, lr}
 8000860:	b086      	sub	sp, #24
 8000862:	f000 fab1 	bl	8000dc8 <HAL_Init>
 8000866:	f7ff ffbf 	bl	80007e8 <SystemClock_Config>
 800086a:	2210      	movs	r2, #16
 800086c:	2100      	movs	r1, #0
 800086e:	a802      	add	r0, sp, #8
 8000870:	f001 fa90 	bl	8001d94 <memset>
 8000874:	4b76      	ldr	r3, [pc, #472]	; (8000a50 <main+0x1f4>)
 8000876:	f44f 41e1 	mov.w	r1, #28800	; 0x7080
 800087a:	699a      	ldr	r2, [r3, #24]
 800087c:	4875      	ldr	r0, [pc, #468]	; (8000a54 <main+0x1f8>)
 800087e:	f042 0204 	orr.w	r2, r2, #4
 8000882:	619a      	str	r2, [r3, #24]
 8000884:	699a      	ldr	r2, [r3, #24]
 8000886:	2400      	movs	r4, #0
 8000888:	f002 0204 	and.w	r2, r2, #4
 800088c:	9200      	str	r2, [sp, #0]
 800088e:	9a00      	ldr	r2, [sp, #0]
 8000890:	699a      	ldr	r2, [r3, #24]
 8000892:	2501      	movs	r5, #1
 8000894:	f042 0208 	orr.w	r2, r2, #8
 8000898:	619a      	str	r2, [r3, #24]
 800089a:	699b      	ldr	r3, [r3, #24]
 800089c:	2200      	movs	r2, #0
 800089e:	f003 0308 	and.w	r3, r3, #8
 80008a2:	9301      	str	r3, [sp, #4]
 80008a4:	9b01      	ldr	r3, [sp, #4]
 80008a6:	f000 fbfd 	bl	80010a4 <HAL_GPIO_WritePin>
 80008aa:	2303      	movs	r3, #3
 80008ac:	4869      	ldr	r0, [pc, #420]	; (8000a54 <main+0x1f8>)
 80008ae:	a902      	add	r1, sp, #8
 80008b0:	e9cd 3402 	strd	r3, r4, [sp, #8]
 80008b4:	9504      	str	r5, [sp, #16]
 80008b6:	f000 fb15 	bl	8000ee4 <HAL_GPIO_Init>
 80008ba:	f44f 43e1 	mov.w	r3, #28800	; 0x7080
 80008be:	e9cd 3502 	strd	r3, r5, [sp, #8]
 80008c2:	2302      	movs	r3, #2
 80008c4:	4863      	ldr	r0, [pc, #396]	; (8000a54 <main+0x1f8>)
 80008c6:	a902      	add	r1, sp, #8
 80008c8:	9305      	str	r3, [sp, #20]
 80008ca:	9404      	str	r4, [sp, #16]
 80008cc:	f000 fb0a 	bl	8000ee4 <HAL_GPIO_Init>
 80008d0:	f44f 4378 	mov.w	r3, #63488	; 0xf800
 80008d4:	4860      	ldr	r0, [pc, #384]	; (8000a58 <main+0x1fc>)
 80008d6:	a902      	add	r1, sp, #8
 80008d8:	e9cd 3402 	strd	r3, r4, [sp, #8]
 80008dc:	9504      	str	r5, [sp, #16]
 80008de:	f000 fb01 	bl	8000ee4 <HAL_GPIO_Init>
 80008e2:	f44f 7382 	mov.w	r3, #260	; 0x104
 80008e6:	485d      	ldr	r0, [pc, #372]	; (8000a5c <main+0x200>)
 80008e8:	4d5d      	ldr	r5, [pc, #372]	; (8000a60 <main+0x204>)
 80008ea:	f44f 7600 	mov.w	r6, #512	; 0x200
 80008ee:	e9c0 5300 	strd	r5, r3, [r0]
 80008f2:	2308      	movs	r3, #8
 80008f4:	e9c0 6306 	strd	r6, r3, [r0, #24]
 80008f8:	230a      	movs	r3, #10
 80008fa:	e9c0 4402 	strd	r4, r4, [r0, #8]
 80008fe:	e9c0 4404 	strd	r4, r4, [r0, #16]
 8000902:	e9c0 4408 	strd	r4, r4, [r0, #32]
 8000906:	6284      	str	r4, [r0, #40]	; 0x28
 8000908:	62c3      	str	r3, [r0, #44]	; 0x2c
 800090a:	f001 f823 	bl	8001954 <HAL_SPI_Init>
 800090e:	b108      	cbz	r0, 8000914 <main+0xb8>
 8000910:	b672      	cpsid	i
 8000912:	e7fe      	b.n	8000912 <main+0xb6>
 8000914:	f04f 33ff 	mov.w	r3, #4294967295
 8000918:	4852      	ldr	r0, [pc, #328]	; (8000a64 <main+0x208>)
 800091a:	4c53      	ldr	r4, [pc, #332]	; (8000a68 <main+0x20c>)
 800091c:	e9c0 4300 	strd	r4, r3, [r0]
 8000920:	f44f 7380 	mov.w	r3, #256	; 0x100
 8000924:	6083      	str	r3, [r0, #8]
 8000926:	f000 ff69 	bl	80017fc <HAL_RTC_Init>
 800092a:	4603      	mov	r3, r0
 800092c:	b108      	cbz	r0, 8000932 <main+0xd6>
 800092e:	b672      	cpsid	i
 8000930:	e7fe      	b.n	8000930 <main+0xd4>
 8000932:	f44f 32e1 	mov.w	r2, #115200	; 0x1c200
 8000936:	484d      	ldr	r0, [pc, #308]	; (8000a6c <main+0x210>)
 8000938:	494d      	ldr	r1, [pc, #308]	; (8000a70 <main+0x214>)
 800093a:	e9c0 3302 	strd	r3, r3, [r0, #8]
 800093e:	e9c0 1200 	strd	r1, r2, [r0]
 8000942:	220c      	movs	r2, #12
 8000944:	6103      	str	r3, [r0, #16]
 8000946:	e9c0 2305 	strd	r2, r3, [r0, #20]
 800094a:	61c3      	str	r3, [r0, #28]
 800094c:	f001 f97e 	bl	8001c4c <HAL_UART_Init>
 8000950:	4604      	mov	r4, r0
 8000952:	b108      	cbz	r0, 8000958 <main+0xfc>
 8000954:	b672      	cpsid	i
 8000956:	e7fe      	b.n	8000956 <main+0xfa>
 8000958:	f7ff fc80 	bl	800025c <ST7735_Init>
 800095c:	f64f 71ff 	movw	r1, #65535	; 0xffff
 8000960:	4620      	mov	r0, r4
 8000962:	f7ff fe43 	bl	80005ec <ResetScreen>
 8000966:	4e3c      	ldr	r6, [pc, #240]	; (8000a58 <main+0x1fc>)
 8000968:	f8df 80e8 	ldr.w	r8, [pc, #232]	; 8000a54 <main+0x1f8>
 800096c:	4d41      	ldr	r5, [pc, #260]	; (8000a74 <main+0x218>)
 800096e:	f44f 6100 	mov.w	r1, #2048	; 0x800
 8000972:	4630      	mov	r0, r6
 8000974:	f000 fb90 	bl	8001098 <HAL_GPIO_ReadPin>
 8000978:	4602      	mov	r2, r0
 800097a:	b948      	cbnz	r0, 8000990 <main+0x134>
 800097c:	782b      	ldrb	r3, [r5, #0]
 800097e:	2b02      	cmp	r3, #2
 8000980:	d006      	beq.n	8000990 <main+0x134>
 8000982:	f64f 73ff 	movw	r3, #65535	; 0xffff
 8000986:	2112      	movs	r1, #18
 8000988:	2003      	movs	r0, #3
 800098a:	f7ff fe73 	bl	8000674 <SizeChosed>
 800098e:	e7ee      	b.n	800096e <main+0x112>
 8000990:	f44f 5180 	mov.w	r1, #4096	; 0x1000
 8000994:	4630      	mov	r0, r6
 8000996:	f000 fb7f 	bl	8001098 <HAL_GPIO_ReadPin>
 800099a:	4602      	mov	r2, r0
 800099c:	b938      	cbnz	r0, 80009ae <main+0x152>
 800099e:	782b      	ldrb	r3, [r5, #0]
 80009a0:	2b02      	cmp	r3, #2
 80009a2:	d004      	beq.n	80009ae <main+0x152>
 80009a4:	f64f 73ff 	movw	r3, #65535	; 0xffff
 80009a8:	2120      	movs	r1, #32
 80009aa:	2004      	movs	r0, #4
 80009ac:	e7ed      	b.n	800098a <main+0x12e>
 80009ae:	f44f 5100 	mov.w	r1, #8192	; 0x2000
 80009b2:	4630      	mov	r0, r6
 80009b4:	f000 fb70 	bl	8001098 <HAL_GPIO_ReadPin>
 80009b8:	4602      	mov	r2, r0
 80009ba:	b938      	cbnz	r0, 80009cc <main+0x170>
 80009bc:	782b      	ldrb	r3, [r5, #0]
 80009be:	2b02      	cmp	r3, #2
 80009c0:	d004      	beq.n	80009cc <main+0x170>
 80009c2:	f64f 73ff 	movw	r3, #65535	; 0xffff
 80009c6:	2132      	movs	r1, #50	; 0x32
 80009c8:	2005      	movs	r0, #5
 80009ca:	e7de      	b.n	800098a <main+0x12e>
 80009cc:	f44f 4180 	mov.w	r1, #16384	; 0x4000
 80009d0:	4630      	mov	r0, r6
 80009d2:	f000 fb61 	bl	8001098 <HAL_GPIO_ReadPin>
 80009d6:	4602      	mov	r2, r0
 80009d8:	b938      	cbnz	r0, 80009ea <main+0x18e>
 80009da:	782b      	ldrb	r3, [r5, #0]
 80009dc:	2b02      	cmp	r3, #2
 80009de:	d004      	beq.n	80009ea <main+0x18e>
 80009e0:	f64f 73ff 	movw	r3, #65535	; 0xffff
 80009e4:	2148      	movs	r1, #72	; 0x48
 80009e6:	2006      	movs	r0, #6
 80009e8:	e7cf      	b.n	800098a <main+0x12e>
 80009ea:	f44f 4100 	mov.w	r1, #32768	; 0x8000
 80009ee:	4630      	mov	r0, r6
 80009f0:	f000 fb52 	bl	8001098 <HAL_GPIO_ReadPin>
 80009f4:	4602      	mov	r2, r0
 80009f6:	b938      	cbnz	r0, 8000a08 <main+0x1ac>
 80009f8:	782b      	ldrb	r3, [r5, #0]
 80009fa:	2b02      	cmp	r3, #2
 80009fc:	d004      	beq.n	8000a08 <main+0x1ac>
 80009fe:	f64f 73ff 	movw	r3, #65535	; 0xffff
 8000a02:	2162      	movs	r1, #98	; 0x62
 8000a04:	2007      	movs	r0, #7
 8000a06:	e7c0      	b.n	800098a <main+0x12e>
 8000a08:	2101      	movs	r1, #1
 8000a0a:	4640      	mov	r0, r8
 8000a0c:	f000 fb44 	bl	8001098 <HAL_GPIO_ReadPin>
 8000a10:	b950      	cbnz	r0, 8000a28 <main+0x1cc>
 8000a12:	782b      	ldrb	r3, [r5, #0]
 8000a14:	2b01      	cmp	r3, #1
 8000a16:	d107      	bne.n	8000a28 <main+0x1cc>
 8000a18:	f64f 71ff 	movw	r1, #65535	; 0xffff
 8000a1c:	f7ff fd4e 	bl	80004bc <ShowTable>
 8000a20:	f000 f9f0 	bl	8000e04 <HAL_GetTick>
 8000a24:	4604      	mov	r4, r0
 8000a26:	e7a2      	b.n	800096e <main+0x112>
 8000a28:	2102      	movs	r1, #2
 8000a2a:	4640      	mov	r0, r8
 8000a2c:	f000 fb34 	bl	8001098 <HAL_GPIO_ReadPin>
 8000a30:	4607      	mov	r7, r0
 8000a32:	2800      	cmp	r0, #0
 8000a34:	d19b      	bne.n	800096e <main+0x112>
 8000a36:	782b      	ldrb	r3, [r5, #0]
 8000a38:	2b02      	cmp	r3, #2
 8000a3a:	d198      	bne.n	800096e <main+0x112>
 8000a3c:	4620      	mov	r0, r4
 8000a3e:	f7ff fe2f 	bl	80006a0 <OnStopPressed>
 8000a42:	f64f 71ff 	movw	r1, #65535	; 0xffff
 8000a46:	4638      	mov	r0, r7
 8000a48:	f7ff fdd0 	bl	80005ec <ResetScreen>
 8000a4c:	e78f      	b.n	800096e <main+0x112>
 8000a4e:	bf00      	nop
 8000a50:	40021000 	.word	0x40021000
 8000a54:	40010c00 	.word	0x40010c00
 8000a58:	40010800 	.word	0x40010800
 8000a5c:	200000e8 	.word	0x200000e8
 8000a60:	40013000 	.word	0x40013000
 8000a64:	200000d4 	.word	0x200000d4
 8000a68:	40002800 	.word	0x40002800
 8000a6c:	20000140 	.word	0x20000140
 8000a70:	40013800 	.word	0x40013800
 8000a74:	200000d0 	.word	0x200000d0

08000a78 <HAL_MspInit>:
 8000a78:	4b0e      	ldr	r3, [pc, #56]	; (8000ab4 <HAL_MspInit+0x3c>)
 8000a7a:	b082      	sub	sp, #8
 8000a7c:	699a      	ldr	r2, [r3, #24]
 8000a7e:	f042 0201 	orr.w	r2, r2, #1
 8000a82:	619a      	str	r2, [r3, #24]
 8000a84:	699a      	ldr	r2, [r3, #24]
 8000a86:	f002 0201 	and.w	r2, r2, #1
 8000a8a:	9200      	str	r2, [sp, #0]
 8000a8c:	9a00      	ldr	r2, [sp, #0]
 8000a8e:	69da      	ldr	r2, [r3, #28]
 8000a90:	f042 5280 	orr.w	r2, r2, #268435456	; 0x10000000
 8000a94:	61da      	str	r2, [r3, #28]
 8000a96:	69db      	ldr	r3, [r3, #28]
 8000a98:	4a07      	ldr	r2, [pc, #28]	; (8000ab8 <HAL_MspInit+0x40>)
 8000a9a:	f003 5380 	and.w	r3, r3, #268435456	; 0x10000000
 8000a9e:	9301      	str	r3, [sp, #4]
 8000aa0:	9b01      	ldr	r3, [sp, #4]
 8000aa2:	6853      	ldr	r3, [r2, #4]
 8000aa4:	f023 63e0 	bic.w	r3, r3, #117440512	; 0x7000000
 8000aa8:	f043 6380 	orr.w	r3, r3, #67108864	; 0x4000000
 8000aac:	6053      	str	r3, [r2, #4]
 8000aae:	b002      	add	sp, #8
 8000ab0:	4770      	bx	lr
 8000ab2:	bf00      	nop
 8000ab4:	40021000 	.word	0x40021000
 8000ab8:	40010000 	.word	0x40010000

08000abc <HAL_RTC_MspInit>:
 8000abc:	b507      	push	{r0, r1, r2, lr}
 8000abe:	4b0b      	ldr	r3, [pc, #44]	; (8000aec <HAL_RTC_MspInit+0x30>)
 8000ac0:	6802      	ldr	r2, [r0, #0]
 8000ac2:	429a      	cmp	r2, r3
 8000ac4:	d10f      	bne.n	8000ae6 <HAL_RTC_MspInit+0x2a>
 8000ac6:	f000 faf3 	bl	80010b0 <HAL_PWR_EnableBkUpAccess>
 8000aca:	4b09      	ldr	r3, [pc, #36]	; (8000af0 <HAL_RTC_MspInit+0x34>)
 8000acc:	69da      	ldr	r2, [r3, #28]
 8000ace:	f042 6200 	orr.w	r2, r2, #134217728	; 0x8000000
 8000ad2:	61da      	str	r2, [r3, #28]
 8000ad4:	2201      	movs	r2, #1
 8000ad6:	69db      	ldr	r3, [r3, #28]
 8000ad8:	f003 6300 	and.w	r3, r3, #134217728	; 0x8000000
 8000adc:	9301      	str	r3, [sp, #4]
 8000ade:	9b01      	ldr	r3, [sp, #4]
 8000ae0:	4b04      	ldr	r3, [pc, #16]	; (8000af4 <HAL_RTC_MspInit+0x38>)
 8000ae2:	f8c3 243c 	str.w	r2, [r3, #1084]	; 0x43c
 8000ae6:	b003      	add	sp, #12
 8000ae8:	f85d fb04 	ldr.w	pc, [sp], #4
 8000aec:	40002800 	.word	0x40002800
 8000af0:	40021000 	.word	0x40021000
 8000af4:	42420000 	.word	0x42420000

08000af8 <HAL_SPI_MspInit>:
 8000af8:	b510      	push	{r4, lr}
 8000afa:	4604      	mov	r4, r0
 8000afc:	b086      	sub	sp, #24
 8000afe:	2210      	movs	r2, #16
 8000b00:	2100      	movs	r1, #0
 8000b02:	a802      	add	r0, sp, #8
 8000b04:	f001 f946 	bl	8001d94 <memset>
 8000b08:	6822      	ldr	r2, [r4, #0]
 8000b0a:	4b11      	ldr	r3, [pc, #68]	; (8000b50 <HAL_SPI_MspInit+0x58>)
 8000b0c:	429a      	cmp	r2, r3
 8000b0e:	d11d      	bne.n	8000b4c <HAL_SPI_MspInit+0x54>
 8000b10:	f503 4360 	add.w	r3, r3, #57344	; 0xe000
 8000b14:	699a      	ldr	r2, [r3, #24]
 8000b16:	480f      	ldr	r0, [pc, #60]	; (8000b54 <HAL_SPI_MspInit+0x5c>)
 8000b18:	f442 5280 	orr.w	r2, r2, #4096	; 0x1000
 8000b1c:	619a      	str	r2, [r3, #24]
 8000b1e:	699a      	ldr	r2, [r3, #24]
 8000b20:	a902      	add	r1, sp, #8
 8000b22:	f402 5280 	and.w	r2, r2, #4096	; 0x1000
 8000b26:	9200      	str	r2, [sp, #0]
 8000b28:	9a00      	ldr	r2, [sp, #0]
 8000b2a:	699a      	ldr	r2, [r3, #24]
 8000b2c:	f042 0204 	orr.w	r2, r2, #4
 8000b30:	619a      	str	r2, [r3, #24]
 8000b32:	699b      	ldr	r3, [r3, #24]
 8000b34:	22a0      	movs	r2, #160	; 0xa0
 8000b36:	f003 0304 	and.w	r3, r3, #4
 8000b3a:	9301      	str	r3, [sp, #4]
 8000b3c:	9b01      	ldr	r3, [sp, #4]
 8000b3e:	2302      	movs	r3, #2
 8000b40:	e9cd 2302 	strd	r2, r3, [sp, #8]
 8000b44:	2303      	movs	r3, #3
 8000b46:	9305      	str	r3, [sp, #20]
 8000b48:	f000 f9cc 	bl	8000ee4 <HAL_GPIO_Init>
 8000b4c:	b006      	add	sp, #24
 8000b4e:	bd10      	pop	{r4, pc}
 8000b50:	40013000 	.word	0x40013000
 8000b54:	40010800 	.word	0x40010800

08000b58 <HAL_UART_MspInit>:
 8000b58:	b510      	push	{r4, lr}
 8000b5a:	4604      	mov	r4, r0
 8000b5c:	b086      	sub	sp, #24
 8000b5e:	2210      	movs	r2, #16
 8000b60:	2100      	movs	r1, #0
 8000b62:	a802      	add	r0, sp, #8
 8000b64:	f001 f916 	bl	8001d94 <memset>
 8000b68:	6822      	ldr	r2, [r4, #0]
 8000b6a:	4b17      	ldr	r3, [pc, #92]	; (8000bc8 <HAL_UART_MspInit+0x70>)
 8000b6c:	429a      	cmp	r2, r3
 8000b6e:	d128      	bne.n	8000bc2 <HAL_UART_MspInit+0x6a>
 8000b70:	f503 4358 	add.w	r3, r3, #55296	; 0xd800
 8000b74:	699a      	ldr	r2, [r3, #24]
 8000b76:	4815      	ldr	r0, [pc, #84]	; (8000bcc <HAL_UART_MspInit+0x74>)
 8000b78:	f442 4280 	orr.w	r2, r2, #16384	; 0x4000
 8000b7c:	619a      	str	r2, [r3, #24]
 8000b7e:	699a      	ldr	r2, [r3, #24]
 8000b80:	a902      	add	r1, sp, #8
 8000b82:	f402 4280 	and.w	r2, r2, #16384	; 0x4000
 8000b86:	9200      	str	r2, [sp, #0]
 8000b88:	9a00      	ldr	r2, [sp, #0]
 8000b8a:	699a      	ldr	r2, [r3, #24]
 8000b8c:	f042 0204 	orr.w	r2, r2, #4
 8000b90:	619a      	str	r2, [r3, #24]
 8000b92:	699b      	ldr	r3, [r3, #24]
 8000b94:	f44f 7200 	mov.w	r2, #512	; 0x200
 8000b98:	f003 0304 	and.w	r3, r3, #4
 8000b9c:	9301      	str	r3, [sp, #4]
 8000b9e:	9b01      	ldr	r3, [sp, #4]
 8000ba0:	2302      	movs	r3, #2
 8000ba2:	e9cd 2302 	strd	r2, r3, [sp, #8]
 8000ba6:	2303      	movs	r3, #3
 8000ba8:	9305      	str	r3, [sp, #20]
 8000baa:	f000 f99b 	bl	8000ee4 <HAL_GPIO_Init>
 8000bae:	f44f 6180 	mov.w	r1, #1024	; 0x400
 8000bb2:	2300      	movs	r3, #0
 8000bb4:	4805      	ldr	r0, [pc, #20]	; (8000bcc <HAL_UART_MspInit+0x74>)
 8000bb6:	e9cd 1302 	strd	r1, r3, [sp, #8]
 8000bba:	a902      	add	r1, sp, #8
 8000bbc:	9304      	str	r3, [sp, #16]
 8000bbe:	f000 f991 	bl	8000ee4 <HAL_GPIO_Init>
 8000bc2:	b006      	add	sp, #24
 8000bc4:	bd10      	pop	{r4, pc}
 8000bc6:	bf00      	nop
 8000bc8:	40013800 	.word	0x40013800
 8000bcc:	40010800 	.word	0x40010800

08000bd0 <NMI_Handler>:
 8000bd0:	e7fe      	b.n	8000bd0 <NMI_Handler>

08000bd2 <HardFault_Handler>:
 8000bd2:	e7fe      	b.n	8000bd2 <HardFault_Handler>

08000bd4 <MemManage_Handler>:
 8000bd4:	e7fe      	b.n	8000bd4 <MemManage_Handler>

08000bd6 <BusFault_Handler>:
 8000bd6:	e7fe      	b.n	8000bd6 <BusFault_Handler>

08000bd8 <UsageFault_Handler>:
 8000bd8:	e7fe      	b.n	8000bd8 <UsageFault_Handler>

08000bda <SVC_Handler>:
 8000bda:	4770      	bx	lr

08000bdc <DebugMon_Handler>:
 8000bdc:	4770      	bx	lr

08000bde <PendSV_Handler>:
 8000bde:	4770      	bx	lr

08000be0 <SysTick_Handler>:
 8000be0:	f000 b904 	b.w	8000dec <HAL_IncTick>

08000be4 <_getpid>:
 8000be4:	2001      	movs	r0, #1
 8000be6:	4770      	bx	lr

08000be8 <_kill>:
 8000be8:	b508      	push	{r3, lr}
 8000bea:	f001 f8a9 	bl	8001d40 <__errno>
 8000bee:	2316      	movs	r3, #22
 8000bf0:	6003      	str	r3, [r0, #0]
 8000bf2:	f04f 30ff 	mov.w	r0, #4294967295
 8000bf6:	bd08      	pop	{r3, pc}

08000bf8 <_exit>:
 8000bf8:	b508      	push	{r3, lr}
 8000bfa:	f001 f8a1 	bl	8001d40 <__errno>
 8000bfe:	2316      	movs	r3, #22
 8000c00:	6003      	str	r3, [r0, #0]
 8000c02:	e7fe      	b.n	8000c02 <_exit+0xa>

08000c04 <_read>:
 8000c04:	b570      	push	{r4, r5, r6, lr}
 8000c06:	460d      	mov	r5, r1
 8000c08:	4614      	mov	r4, r2
 8000c0a:	460e      	mov	r6, r1
 8000c0c:	1b73      	subs	r3, r6, r5
 8000c0e:	429c      	cmp	r4, r3
 8000c10:	dc01      	bgt.n	8000c16 <_read+0x12>
 8000c12:	4620      	mov	r0, r4
 8000c14:	bd70      	pop	{r4, r5, r6, pc}
 8000c16:	f3af 8000 	nop.w
 8000c1a:	f806 0b01 	strb.w	r0, [r6], #1
 8000c1e:	e7f5      	b.n	8000c0c <_read+0x8>

08000c20 <_write>:
 8000c20:	b570      	push	{r4, r5, r6, lr}
 8000c22:	460d      	mov	r5, r1
 8000c24:	4614      	mov	r4, r2
 8000c26:	460e      	mov	r6, r1
 8000c28:	1b73      	subs	r3, r6, r5
 8000c2a:	429c      	cmp	r4, r3
 8000c2c:	dc01      	bgt.n	8000c32 <_write+0x12>
 8000c2e:	4620      	mov	r0, r4
 8000c30:	bd70      	pop	{r4, r5, r6, pc}
 8000c32:	f816 0b01 	ldrb.w	r0, [r6], #1
 8000c36:	f3af 8000 	nop.w
 8000c3a:	e7f5      	b.n	8000c28 <_write+0x8>

08000c3c <_close>:
 8000c3c:	f04f 30ff 	mov.w	r0, #4294967295
 8000c40:	4770      	bx	lr

08000c42 <_fstat>:
 8000c42:	f44f 5300 	mov.w	r3, #8192	; 0x2000
 8000c46:	2000      	movs	r0, #0
 8000c48:	604b      	str	r3, [r1, #4]
 8000c4a:	4770      	bx	lr

08000c4c <_isatty>:
 8000c4c:	2001      	movs	r0, #1
 8000c4e:	4770      	bx	lr

08000c50 <_lseek>:
 8000c50:	2000      	movs	r0, #0
 8000c52:	4770      	bx	lr

08000c54 <_sbrk>:
 8000c54:	4a0b      	ldr	r2, [pc, #44]	; (8000c84 <_sbrk+0x30>)
 8000c56:	4603      	mov	r3, r0
 8000c58:	6811      	ldr	r1, [r2, #0]
 8000c5a:	b510      	push	{r4, lr}
 8000c5c:	b909      	cbnz	r1, 8000c62 <_sbrk+0xe>
 8000c5e:	490a      	ldr	r1, [pc, #40]	; (8000c88 <_sbrk+0x34>)
 8000c60:	6011      	str	r1, [r2, #0]
 8000c62:	6810      	ldr	r0, [r2, #0]
 8000c64:	4909      	ldr	r1, [pc, #36]	; (8000c8c <_sbrk+0x38>)
 8000c66:	4c0a      	ldr	r4, [pc, #40]	; (8000c90 <_sbrk+0x3c>)
 8000c68:	4403      	add	r3, r0
 8000c6a:	1b09      	subs	r1, r1, r4
 8000c6c:	428b      	cmp	r3, r1
 8000c6e:	d906      	bls.n	8000c7e <_sbrk+0x2a>
 8000c70:	f001 f866 	bl	8001d40 <__errno>
 8000c74:	230c      	movs	r3, #12
 8000c76:	6003      	str	r3, [r0, #0]
 8000c78:	f04f 30ff 	mov.w	r0, #4294967295
 8000c7c:	bd10      	pop	{r4, pc}
 8000c7e:	6013      	str	r3, [r2, #0]
 8000c80:	e7fc      	b.n	8000c7c <_sbrk+0x28>
 8000c82:	bf00      	nop
 8000c84:	20000188 	.word	0x20000188
 8000c88:	20000268 	.word	0x20000268
 8000c8c:	20005000 	.word	0x20005000
 8000c90:	00000400 	.word	0x00000400

08000c94 <SystemInit>:
 8000c94:	4770      	bx	lr
	...

08000c98 <FillTable>:
 8000c98:	e92d 43f8 	stmdb	sp!, {r3, r4, r5, r6, r7, r8, r9, lr}
 8000c9c:	4606      	mov	r6, r0
 8000c9e:	4608      	mov	r0, r1
 8000ca0:	f001 f880 	bl	8001da4 <srand>
 8000ca4:	4a22      	ldr	r2, [pc, #136]	; (8000d30 <FillTable+0x98>)
 8000ca6:	2100      	movs	r1, #0
 8000ca8:	2301      	movs	r3, #1
 8000caa:	4617      	mov	r7, r2
 8000cac:	6810      	ldr	r0, [r2, #0]
 8000cae:	4288      	cmp	r0, r1
 8000cb0:	dc05      	bgt.n	8000cbe <FillTable+0x26>
 8000cb2:	f04f 0800 	mov.w	r8, #0
 8000cb6:	45b0      	cmp	r8, r6
 8000cb8:	db0c      	blt.n	8000cd4 <FillTable+0x3c>
 8000cba:	e8bd 83f8 	ldmia.w	sp!, {r3, r4, r5, r6, r7, r8, r9, pc}
 8000cbe:	4614      	mov	r4, r2
 8000cc0:	181d      	adds	r5, r3, r0
 8000cc2:	469c      	mov	ip, r3
 8000cc4:	3301      	adds	r3, #1
 8000cc6:	42ab      	cmp	r3, r5
 8000cc8:	f844 cf04 	str.w	ip, [r4, #4]!
 8000ccc:	d1f9      	bne.n	8000cc2 <FillTable+0x2a>
 8000cce:	3101      	adds	r1, #1
 8000cd0:	321c      	adds	r2, #28
 8000cd2:	e7ec      	b.n	8000cae <FillTable+0x16>
 8000cd4:	f001 f894 	bl	8001e00 <rand>
 8000cd8:	683b      	ldr	r3, [r7, #0]
 8000cda:	f108 0801 	add.w	r8, r8, #1
 8000cde:	fb90 f5f3 	sdiv	r5, r0, r3
 8000ce2:	fb05 0513 	mls	r5, r5, r3, r0
 8000ce6:	f001 f88b 	bl	8001e00 <rand>
 8000cea:	683b      	ldr	r3, [r7, #0]
 8000cec:	ebc5 05c5 	rsb	r5, r5, r5, lsl #3
 8000cf0:	fb90 f9f3 	sdiv	r9, r0, r3
 8000cf4:	fb09 0913 	mls	r9, r9, r3, r0
 8000cf8:	f001 f882 	bl	8001e00 <rand>
 8000cfc:	683b      	ldr	r3, [r7, #0]
 8000cfe:	444d      	add	r5, r9
 8000d00:	fb90 f4f3 	sdiv	r4, r0, r3
 8000d04:	fb04 0413 	mls	r4, r4, r3, r0
 8000d08:	f001 f87a 	bl	8001e00 <rand>
 8000d0c:	683b      	ldr	r3, [r7, #0]
 8000d0e:	ebc4 04c4 	rsb	r4, r4, r4, lsl #3
 8000d12:	fb90 f2f3 	sdiv	r2, r0, r3
 8000d16:	fb02 0013 	mls	r0, r2, r3, r0
 8000d1a:	4404      	add	r4, r0
 8000d1c:	eb07 0585 	add.w	r5, r7, r5, lsl #2
 8000d20:	eb07 0484 	add.w	r4, r7, r4, lsl #2
 8000d24:	686b      	ldr	r3, [r5, #4]
 8000d26:	6862      	ldr	r2, [r4, #4]
 8000d28:	606a      	str	r2, [r5, #4]
 8000d2a:	6063      	str	r3, [r4, #4]
 8000d2c:	e7c3      	b.n	8000cb6 <FillTable+0x1e>
 8000d2e:	bf00      	nop
 8000d30:	2000018c 	.word	0x2000018c

08000d34 <Reset_Handler>:
 8000d34:	f7ff ffae 	bl	8000c94 <SystemInit>
 8000d38:	480b      	ldr	r0, [pc, #44]	; (8000d68 <LoopFillZerobss+0xe>)
 8000d3a:	490c      	ldr	r1, [pc, #48]	; (8000d6c <LoopFillZerobss+0x12>)
 8000d3c:	4a0c      	ldr	r2, [pc, #48]	; (8000d70 <LoopFillZerobss+0x16>)
 8000d3e:	2300      	movs	r3, #0
 8000d40:	e002      	b.n	8000d48 <LoopCopyDataInit>

08000d42 <CopyDataInit>:
 8000d42:	58d4      	ldr	r4, [r2, r3]
 8000d44:	50c4      	str	r4, [r0, r3]
 8000d46:	3304      	adds	r3, #4

08000d48 <LoopCopyDataInit>:
 8000d48:	18c4      	adds	r4, r0, r3
 8000d4a:	428c      	cmp	r4, r1
 8000d4c:	d3f9      	bcc.n	8000d42 <CopyDataInit>
 8000d4e:	4a09      	ldr	r2, [pc, #36]	; (8000d74 <LoopFillZerobss+0x1a>)
 8000d50:	4c09      	ldr	r4, [pc, #36]	; (8000d78 <LoopFillZerobss+0x1e>)
 8000d52:	2300      	movs	r3, #0
 8000d54:	e001      	b.n	8000d5a <LoopFillZerobss>

08000d56 <FillZerobss>:
 8000d56:	6013      	str	r3, [r2, #0]
 8000d58:	3204      	adds	r2, #4

08000d5a <LoopFillZerobss>:
 8000d5a:	42a2      	cmp	r2, r4
 8000d5c:	d3fb      	bcc.n	8000d56 <FillZerobss>
 8000d5e:	f000 fff5 	bl	8001d4c <__libc_init_array>
 8000d62:	f7ff fd7b 	bl	800085c <main>
 8000d66:	4770      	bx	lr
 8000d68:	20000000 	.word	0x20000000
 8000d6c:	200000b4 	.word	0x200000b4
 8000d70:	08003c58 	.word	0x08003c58
 8000d74:	200000b4 	.word	0x200000b4
 8000d78:	20000268 	.word	0x20000268

08000d7c <ADC1_2_IRQHandler>:
 8000d7c:	e7fe      	b.n	8000d7c <ADC1_2_IRQHandler>
	...

08000d80 <HAL_InitTick>:
 8000d80:	b538      	push	{r3, r4, r5, lr}
 8000d82:	4b0e      	ldr	r3, [pc, #56]	; (8000dbc <HAL_InitTick+0x3c>)
 8000d84:	4605      	mov	r5, r0
 8000d86:	7818      	ldrb	r0, [r3, #0]
 8000d88:	f44f 737a 	mov.w	r3, #1000	; 0x3e8
 8000d8c:	fbb3 f3f0 	udiv	r3, r3, r0
 8000d90:	4a0b      	ldr	r2, [pc, #44]	; (8000dc0 <HAL_InitTick+0x40>)
 8000d92:	6810      	ldr	r0, [r2, #0]
 8000d94:	fbb0 f0f3 	udiv	r0, r0, r3
 8000d98:	f000 f890 	bl	8000ebc <HAL_SYSTICK_Config>
 8000d9c:	4604      	mov	r4, r0
 8000d9e:	b958      	cbnz	r0, 8000db8 <HAL_InitTick+0x38>
 8000da0:	2d0f      	cmp	r5, #15
 8000da2:	d809      	bhi.n	8000db8 <HAL_InitTick+0x38>
 8000da4:	4602      	mov	r2, r0
 8000da6:	4629      	mov	r1, r5
 8000da8:	f04f 30ff 	mov.w	r0, #4294967295
 8000dac:	f000 f854 	bl	8000e58 <HAL_NVIC_SetPriority>
 8000db0:	4620      	mov	r0, r4
 8000db2:	4b04      	ldr	r3, [pc, #16]	; (8000dc4 <HAL_InitTick+0x44>)
 8000db4:	601d      	str	r5, [r3, #0]
 8000db6:	bd38      	pop	{r3, r4, r5, pc}
 8000db8:	2001      	movs	r0, #1
 8000dba:	e7fc      	b.n	8000db6 <HAL_InitTick+0x36>
 8000dbc:	20000048 	.word	0x20000048
 8000dc0:	20000044 	.word	0x20000044
 8000dc4:	2000004c 	.word	0x2000004c

08000dc8 <HAL_Init>:
 8000dc8:	4a07      	ldr	r2, [pc, #28]	; (8000de8 <HAL_Init+0x20>)
 8000dca:	b508      	push	{r3, lr}
 8000dcc:	6813      	ldr	r3, [r2, #0]
 8000dce:	2003      	movs	r0, #3
 8000dd0:	f043 0310 	orr.w	r3, r3, #16
 8000dd4:	6013      	str	r3, [r2, #0]
 8000dd6:	f000 f82d 	bl	8000e34 <HAL_NVIC_SetPriorityGrouping>
 8000dda:	200f      	movs	r0, #15
 8000ddc:	f7ff ffd0 	bl	8000d80 <HAL_InitTick>
 8000de0:	f7ff fe4a 	bl	8000a78 <HAL_MspInit>
 8000de4:	2000      	movs	r0, #0
 8000de6:	bd08      	pop	{r3, pc}
 8000de8:	40022000 	.word	0x40022000

08000dec <HAL_IncTick>:
 8000dec:	4a03      	ldr	r2, [pc, #12]	; (8000dfc <HAL_IncTick+0x10>)
 8000dee:	4b04      	ldr	r3, [pc, #16]	; (8000e00 <HAL_IncTick+0x14>)
 8000df0:	6811      	ldr	r1, [r2, #0]
 8000df2:	781b      	ldrb	r3, [r3, #0]
 8000df4:	440b      	add	r3, r1
 8000df6:	6013      	str	r3, [r2, #0]
 8000df8:	4770      	bx	lr
 8000dfa:	bf00      	nop
 8000dfc:	20000254 	.word	0x20000254
 8000e00:	20000048 	.word	0x20000048

08000e04 <HAL_GetTick>:
 8000e04:	4b01      	ldr	r3, [pc, #4]	; (8000e0c <HAL_GetTick+0x8>)
 8000e06:	6818      	ldr	r0, [r3, #0]
 8000e08:	4770      	bx	lr
 8000e0a:	bf00      	nop
 8000e0c:	20000254 	.word	0x20000254

08000e10 <HAL_Delay>:
 8000e10:	b538      	push	{r3, r4, r5, lr}
 8000e12:	4604      	mov	r4, r0
 8000e14:	f7ff fff6 	bl	8000e04 <HAL_GetTick>
 8000e18:	4605      	mov	r5, r0
 8000e1a:	1c63      	adds	r3, r4, #1
 8000e1c:	bf1e      	ittt	ne
 8000e1e:	4b04      	ldrne	r3, [pc, #16]	; (8000e30 <HAL_Delay+0x20>)
 8000e20:	781b      	ldrbne	r3, [r3, #0]
 8000e22:	18e4      	addne	r4, r4, r3
 8000e24:	f7ff ffee 	bl	8000e04 <HAL_GetTick>
 8000e28:	1b43      	subs	r3, r0, r5
 8000e2a:	42a3      	cmp	r3, r4
 8000e2c:	d3fa      	bcc.n	8000e24 <HAL_Delay+0x14>
 8000e2e:	bd38      	pop	{r3, r4, r5, pc}
 8000e30:	20000048 	.word	0x20000048

08000e34 <HAL_NVIC_SetPriorityGrouping>:
 8000e34:	4907      	ldr	r1, [pc, #28]	; (8000e54 <HAL_NVIC_SetPriorityGrouping+0x20>)
 8000e36:	0203      	lsls	r3, r0, #8
 8000e38:	68ca      	ldr	r2, [r1, #12]
 8000e3a:	f403 63e0 	and.w	r3, r3, #1792	; 0x700
 8000e3e:	f422 62e0 	bic.w	r2, r2, #1792	; 0x700
 8000e42:	0412      	lsls	r2, r2, #16
 8000e44:	0c12      	lsrs	r2, r2, #16
 8000e46:	4313      	orrs	r3, r2
 8000e48:	f043 63bf 	orr.w	r3, r3, #100139008	; 0x5f80000
 8000e4c:	f443 3300 	orr.w	r3, r3, #131072	; 0x20000
 8000e50:	60cb      	str	r3, [r1, #12]
 8000e52:	4770      	bx	lr
 8000e54:	e000ed00 	.word	0xe000ed00

08000e58 <HAL_NVIC_SetPriority>:
 8000e58:	4b16      	ldr	r3, [pc, #88]	; (8000eb4 <HAL_NVIC_SetPriority+0x5c>)
 8000e5a:	b530      	push	{r4, r5, lr}
 8000e5c:	68dc      	ldr	r4, [r3, #12]
 8000e5e:	f3c4 2402 	ubfx	r4, r4, #8, #3
 8000e62:	f1c4 0307 	rsb	r3, r4, #7
 8000e66:	1d25      	adds	r5, r4, #4
 8000e68:	2b04      	cmp	r3, #4
 8000e6a:	bf28      	it	cs
 8000e6c:	2304      	movcs	r3, #4
 8000e6e:	2d06      	cmp	r5, #6
 8000e70:	f04f 35ff 	mov.w	r5, #4294967295
 8000e74:	bf98      	it	ls
 8000e76:	2400      	movls	r4, #0
 8000e78:	fa05 f303 	lsl.w	r3, r5, r3
 8000e7c:	bf88      	it	hi
 8000e7e:	3c03      	subhi	r4, #3
 8000e80:	ea21 0303 	bic.w	r3, r1, r3
 8000e84:	40a3      	lsls	r3, r4
 8000e86:	fa05 f404 	lsl.w	r4, r5, r4
 8000e8a:	ea22 0204 	bic.w	r2, r2, r4
 8000e8e:	2800      	cmp	r0, #0
 8000e90:	ea43 0302 	orr.w	r3, r3, r2
 8000e94:	bfac      	ite	ge
 8000e96:	f100 4060 	addge.w	r0, r0, #3758096384	; 0xe0000000
 8000e9a:	4a07      	ldrlt	r2, [pc, #28]	; (8000eb8 <HAL_NVIC_SetPriority+0x60>)
 8000e9c:	ea4f 1303 	mov.w	r3, r3, lsl #4
 8000ea0:	b2db      	uxtb	r3, r3
 8000ea2:	bfab      	itete	ge
 8000ea4:	f500 4061 	addge.w	r0, r0, #57600	; 0xe100
 8000ea8:	f000 000f 	andlt.w	r0, r0, #15
 8000eac:	f880 3300 	strbge.w	r3, [r0, #768]	; 0x300
 8000eb0:	5413      	strblt	r3, [r2, r0]
 8000eb2:	bd30      	pop	{r4, r5, pc}
 8000eb4:	e000ed00 	.word	0xe000ed00
 8000eb8:	e000ed14 	.word	0xe000ed14

08000ebc <HAL_SYSTICK_Config>:
 8000ebc:	3801      	subs	r0, #1
 8000ebe:	f1b0 7f80 	cmp.w	r0, #16777216	; 0x1000000
 8000ec2:	d20b      	bcs.n	8000edc <HAL_SYSTICK_Config+0x20>
 8000ec4:	f04f 23e0 	mov.w	r3, #3758153728	; 0xe000e000
 8000ec8:	21f0      	movs	r1, #240	; 0xf0
 8000eca:	4a05      	ldr	r2, [pc, #20]	; (8000ee0 <HAL_SYSTICK_Config+0x24>)
 8000ecc:	6158      	str	r0, [r3, #20]
 8000ece:	f882 1023 	strb.w	r1, [r2, #35]	; 0x23
 8000ed2:	2000      	movs	r0, #0
 8000ed4:	2207      	movs	r2, #7
 8000ed6:	6198      	str	r0, [r3, #24]
 8000ed8:	611a      	str	r2, [r3, #16]
 8000eda:	4770      	bx	lr
 8000edc:	2001      	movs	r0, #1
 8000ede:	4770      	bx	lr
 8000ee0:	e000ed00 	.word	0xe000ed00

08000ee4 <HAL_GPIO_Init>:
 8000ee4:	e92d 4ff7 	stmdb	sp!, {r0, r1, r2, r4, r5, r6, r7, r8, r9, sl, fp, lr}
 8000ee8:	2200      	movs	r2, #0
 8000eea:	4616      	mov	r6, r2
 8000eec:	4f64      	ldr	r7, [pc, #400]	; (8001080 <HAL_GPIO_Init+0x19c>)
 8000eee:	4b65      	ldr	r3, [pc, #404]	; (8001084 <HAL_GPIO_Init+0x1a0>)
 8000ef0:	f8df c194 	ldr.w	ip, [pc, #404]	; 8001088 <HAL_GPIO_Init+0x1a4>
 8000ef4:	f8df e194 	ldr.w	lr, [pc, #404]	; 800108c <HAL_GPIO_Init+0x1a8>
 8000ef8:	680d      	ldr	r5, [r1, #0]
 8000efa:	fa35 f406 	lsrs.w	r4, r5, r6
 8000efe:	d102      	bne.n	8000f06 <HAL_GPIO_Init+0x22>
 8000f00:	b003      	add	sp, #12
 8000f02:	e8bd 8ff0 	ldmia.w	sp!, {r4, r5, r6, r7, r8, r9, sl, fp, pc}
 8000f06:	f04f 0801 	mov.w	r8, #1
 8000f0a:	fa08 f806 	lsl.w	r8, r8, r6
 8000f0e:	ea05 0408 	and.w	r4, r5, r8
 8000f12:	ea38 0505 	bics.w	r5, r8, r5
 8000f16:	d17b      	bne.n	8001010 <HAL_GPIO_Init+0x12c>
 8000f18:	684d      	ldr	r5, [r1, #4]
 8000f1a:	2d03      	cmp	r5, #3
 8000f1c:	d807      	bhi.n	8000f2e <HAL_GPIO_Init+0x4a>
 8000f1e:	3d01      	subs	r5, #1
 8000f20:	2d02      	cmp	r5, #2
 8000f22:	f200 8088 	bhi.w	8001036 <HAL_GPIO_Init+0x152>
 8000f26:	e8df f005 	tbb	[pc, r5]
 8000f2a:	9b96      	.short	0x9b96
 8000f2c:	a1          	.byte	0xa1
 8000f2d:	00          	.byte	0x00
 8000f2e:	2d12      	cmp	r5, #18
 8000f30:	f000 8099 	beq.w	8001066 <HAL_GPIO_Init+0x182>
 8000f34:	d86e      	bhi.n	8001014 <HAL_GPIO_Init+0x130>
 8000f36:	2d11      	cmp	r5, #17
 8000f38:	f000 808f 	beq.w	800105a <HAL_GPIO_Init+0x176>
 8000f3c:	2cff      	cmp	r4, #255	; 0xff
 8000f3e:	bf98      	it	ls
 8000f40:	4682      	movls	sl, r0
 8000f42:	f04f 090f 	mov.w	r9, #15
 8000f46:	bf88      	it	hi
 8000f48:	f100 0a04 	addhi.w	sl, r0, #4
 8000f4c:	ea4f 0586 	mov.w	r5, r6, lsl #2
 8000f50:	f8da 8000 	ldr.w	r8, [sl]
 8000f54:	bf88      	it	hi
 8000f56:	3d20      	subhi	r5, #32
 8000f58:	fa09 fb05 	lsl.w	fp, r9, r5
 8000f5c:	ea28 080b 	bic.w	r8, r8, fp
 8000f60:	fa02 f505 	lsl.w	r5, r2, r5
 8000f64:	ea48 0505 	orr.w	r5, r8, r5
 8000f68:	f8ca 5000 	str.w	r5, [sl]
 8000f6c:	f8d1 a004 	ldr.w	sl, [r1, #4]
 8000f70:	f01a 5f80 	tst.w	sl, #268435456	; 0x10000000
 8000f74:	d04c      	beq.n	8001010 <HAL_GPIO_Init+0x12c>
 8000f76:	69bd      	ldr	r5, [r7, #24]
 8000f78:	f026 0803 	bic.w	r8, r6, #3
 8000f7c:	f045 0501 	orr.w	r5, r5, #1
 8000f80:	61bd      	str	r5, [r7, #24]
 8000f82:	69bd      	ldr	r5, [r7, #24]
 8000f84:	f108 4880 	add.w	r8, r8, #1073741824	; 0x40000000
 8000f88:	f005 0501 	and.w	r5, r5, #1
 8000f8c:	9501      	str	r5, [sp, #4]
 8000f8e:	f508 3880 	add.w	r8, r8, #65536	; 0x10000
 8000f92:	f006 0b03 	and.w	fp, r6, #3
 8000f96:	9d01      	ldr	r5, [sp, #4]
 8000f98:	ea4f 0b8b 	mov.w	fp, fp, lsl #2
 8000f9c:	f8d8 5008 	ldr.w	r5, [r8, #8]
 8000fa0:	fa09 f90b 	lsl.w	r9, r9, fp
 8000fa4:	ea25 0909 	bic.w	r9, r5, r9
 8000fa8:	4d39      	ldr	r5, [pc, #228]	; (8001090 <HAL_GPIO_Init+0x1ac>)
 8000faa:	42a8      	cmp	r0, r5
 8000fac:	d062      	beq.n	8001074 <HAL_GPIO_Init+0x190>
 8000fae:	f505 6580 	add.w	r5, r5, #1024	; 0x400
 8000fb2:	42a8      	cmp	r0, r5
 8000fb4:	d060      	beq.n	8001078 <HAL_GPIO_Init+0x194>
 8000fb6:	f505 6580 	add.w	r5, r5, #1024	; 0x400
 8000fba:	42a8      	cmp	r0, r5
 8000fbc:	d05e      	beq.n	800107c <HAL_GPIO_Init+0x198>
 8000fbe:	f505 6580 	add.w	r5, r5, #1024	; 0x400
 8000fc2:	42a8      	cmp	r0, r5
 8000fc4:	bf0c      	ite	eq
 8000fc6:	2503      	moveq	r5, #3
 8000fc8:	2504      	movne	r5, #4
 8000fca:	fa05 f50b 	lsl.w	r5, r5, fp
 8000fce:	ea45 0509 	orr.w	r5, r5, r9
 8000fd2:	f8c8 5008 	str.w	r5, [r8, #8]
 8000fd6:	689d      	ldr	r5, [r3, #8]
 8000fd8:	f41a 1f80 	tst.w	sl, #1048576	; 0x100000
 8000fdc:	bf14      	ite	ne
 8000fde:	4325      	orrne	r5, r4
 8000fe0:	43a5      	biceq	r5, r4
 8000fe2:	609d      	str	r5, [r3, #8]
 8000fe4:	68dd      	ldr	r5, [r3, #12]
 8000fe6:	f41a 1f00 	tst.w	sl, #2097152	; 0x200000
 8000fea:	bf14      	ite	ne
 8000fec:	4325      	orrne	r5, r4
 8000fee:	43a5      	biceq	r5, r4
 8000ff0:	60dd      	str	r5, [r3, #12]
 8000ff2:	685d      	ldr	r5, [r3, #4]
 8000ff4:	f41a 3f00 	tst.w	sl, #131072	; 0x20000
 8000ff8:	bf14      	ite	ne
 8000ffa:	4325      	orrne	r5, r4
 8000ffc:	43a5      	biceq	r5, r4
 8000ffe:	605d      	str	r5, [r3, #4]
 8001000:	681d      	ldr	r5, [r3, #0]
 8001002:	f41a 3f80 	tst.w	sl, #65536	; 0x10000
 8001006:	bf14      	ite	ne
 8001008:	432c      	orrne	r4, r5
 800100a:	ea25 0404 	biceq.w	r4, r5, r4
 800100e:	601c      	str	r4, [r3, #0]
 8001010:	3601      	adds	r6, #1
 8001012:	e771      	b.n	8000ef8 <HAL_GPIO_Init+0x14>
 8001014:	f8df 907c 	ldr.w	r9, [pc, #124]	; 8001094 <HAL_GPIO_Init+0x1b0>
 8001018:	454d      	cmp	r5, r9
 800101a:	d00c      	beq.n	8001036 <HAL_GPIO_Init+0x152>
 800101c:	d817      	bhi.n	800104e <HAL_GPIO_Init+0x16a>
 800101e:	f5a9 1980 	sub.w	r9, r9, #1048576	; 0x100000
 8001022:	454d      	cmp	r5, r9
 8001024:	d007      	beq.n	8001036 <HAL_GPIO_Init+0x152>
 8001026:	f509 2970 	add.w	r9, r9, #983040	; 0xf0000
 800102a:	454d      	cmp	r5, r9
 800102c:	d003      	beq.n	8001036 <HAL_GPIO_Init+0x152>
 800102e:	f5a9 1980 	sub.w	r9, r9, #1048576	; 0x100000
 8001032:	454d      	cmp	r5, r9
 8001034:	d182      	bne.n	8000f3c <HAL_GPIO_Init+0x58>
 8001036:	688a      	ldr	r2, [r1, #8]
 8001038:	b1d2      	cbz	r2, 8001070 <HAL_GPIO_Init+0x18c>
 800103a:	2a01      	cmp	r2, #1
 800103c:	bf08      	it	eq
 800103e:	f8c0 8010 	streq.w	r8, [r0, #16]
 8001042:	f04f 0208 	mov.w	r2, #8
 8001046:	bf18      	it	ne
 8001048:	f8c0 8014 	strne.w	r8, [r0, #20]
 800104c:	e776      	b.n	8000f3c <HAL_GPIO_Init+0x58>
 800104e:	4565      	cmp	r5, ip
 8001050:	d0f1      	beq.n	8001036 <HAL_GPIO_Init+0x152>
 8001052:	4575      	cmp	r5, lr
 8001054:	e7ee      	b.n	8001034 <HAL_GPIO_Init+0x150>
 8001056:	68ca      	ldr	r2, [r1, #12]
 8001058:	e770      	b.n	8000f3c <HAL_GPIO_Init+0x58>
 800105a:	68ca      	ldr	r2, [r1, #12]
 800105c:	3204      	adds	r2, #4
 800105e:	e76d      	b.n	8000f3c <HAL_GPIO_Init+0x58>
 8001060:	68ca      	ldr	r2, [r1, #12]
 8001062:	3208      	adds	r2, #8
 8001064:	e76a      	b.n	8000f3c <HAL_GPIO_Init+0x58>
 8001066:	68ca      	ldr	r2, [r1, #12]
 8001068:	320c      	adds	r2, #12
 800106a:	e767      	b.n	8000f3c <HAL_GPIO_Init+0x58>
 800106c:	2200      	movs	r2, #0
 800106e:	e765      	b.n	8000f3c <HAL_GPIO_Init+0x58>
 8001070:	2204      	movs	r2, #4
 8001072:	e763      	b.n	8000f3c <HAL_GPIO_Init+0x58>
 8001074:	2500      	movs	r5, #0
 8001076:	e7a8      	b.n	8000fca <HAL_GPIO_Init+0xe6>
 8001078:	2501      	movs	r5, #1
 800107a:	e7a6      	b.n	8000fca <HAL_GPIO_Init+0xe6>
 800107c:	2502      	movs	r5, #2
 800107e:	e7a4      	b.n	8000fca <HAL_GPIO_Init+0xe6>
 8001080:	40021000 	.word	0x40021000
 8001084:	40010400 	.word	0x40010400
 8001088:	10310000 	.word	0x10310000
 800108c:	10320000 	.word	0x10320000
 8001090:	40010800 	.word	0x40010800
 8001094:	10220000 	.word	0x10220000

08001098 <HAL_GPIO_ReadPin>:
 8001098:	6883      	ldr	r3, [r0, #8]
 800109a:	4219      	tst	r1, r3
 800109c:	bf14      	ite	ne
 800109e:	2001      	movne	r0, #1
 80010a0:	2000      	moveq	r0, #0
 80010a2:	4770      	bx	lr

080010a4 <HAL_GPIO_WritePin>:
 80010a4:	b10a      	cbz	r2, 80010aa <HAL_GPIO_WritePin+0x6>
 80010a6:	6101      	str	r1, [r0, #16]
 80010a8:	4770      	bx	lr
 80010aa:	0409      	lsls	r1, r1, #16
 80010ac:	e7fb      	b.n	80010a6 <HAL_GPIO_WritePin+0x2>
	...

080010b0 <HAL_PWR_EnableBkUpAccess>:
 80010b0:	2201      	movs	r2, #1
 80010b2:	4b01      	ldr	r3, [pc, #4]	; (80010b8 <HAL_PWR_EnableBkUpAccess+0x8>)
 80010b4:	621a      	str	r2, [r3, #32]
 80010b6:	4770      	bx	lr
 80010b8:	420e0000 	.word	0x420e0000

080010bc <HAL_RCC_OscConfig>:
 80010bc:	e92d 41f3 	stmdb	sp!, {r0, r1, r4, r5, r6, r7, r8, lr}
 80010c0:	4605      	mov	r5, r0
 80010c2:	b338      	cbz	r0, 8001114 <HAL_RCC_OscConfig+0x58>
 80010c4:	6803      	ldr	r3, [r0, #0]
 80010c6:	07db      	lsls	r3, r3, #31
 80010c8:	d410      	bmi.n	80010ec <HAL_RCC_OscConfig+0x30>
 80010ca:	682b      	ldr	r3, [r5, #0]
 80010cc:	079f      	lsls	r7, r3, #30
 80010ce:	d45e      	bmi.n	800118e <HAL_RCC_OscConfig+0xd2>
 80010d0:	682b      	ldr	r3, [r5, #0]
 80010d2:	0719      	lsls	r1, r3, #28
 80010d4:	f100 8095 	bmi.w	8001202 <HAL_RCC_OscConfig+0x146>
 80010d8:	682b      	ldr	r3, [r5, #0]
 80010da:	075a      	lsls	r2, r3, #29
 80010dc:	f100 80c1 	bmi.w	8001262 <HAL_RCC_OscConfig+0x1a6>
 80010e0:	69e8      	ldr	r0, [r5, #28]
 80010e2:	2800      	cmp	r0, #0
 80010e4:	f040 812c 	bne.w	8001340 <HAL_RCC_OscConfig+0x284>
 80010e8:	2000      	movs	r0, #0
 80010ea:	e029      	b.n	8001140 <HAL_RCC_OscConfig+0x84>
 80010ec:	4c90      	ldr	r4, [pc, #576]	; (8001330 <HAL_RCC_OscConfig+0x274>)
 80010ee:	6863      	ldr	r3, [r4, #4]
 80010f0:	f003 030c 	and.w	r3, r3, #12
 80010f4:	2b04      	cmp	r3, #4
 80010f6:	d007      	beq.n	8001108 <HAL_RCC_OscConfig+0x4c>
 80010f8:	6863      	ldr	r3, [r4, #4]
 80010fa:	f003 030c 	and.w	r3, r3, #12
 80010fe:	2b08      	cmp	r3, #8
 8001100:	d10a      	bne.n	8001118 <HAL_RCC_OscConfig+0x5c>
 8001102:	6863      	ldr	r3, [r4, #4]
 8001104:	03de      	lsls	r6, r3, #15
 8001106:	d507      	bpl.n	8001118 <HAL_RCC_OscConfig+0x5c>
 8001108:	6823      	ldr	r3, [r4, #0]
 800110a:	039c      	lsls	r4, r3, #14
 800110c:	d5dd      	bpl.n	80010ca <HAL_RCC_OscConfig+0xe>
 800110e:	686b      	ldr	r3, [r5, #4]
 8001110:	2b00      	cmp	r3, #0
 8001112:	d1da      	bne.n	80010ca <HAL_RCC_OscConfig+0xe>
 8001114:	2001      	movs	r0, #1
 8001116:	e013      	b.n	8001140 <HAL_RCC_OscConfig+0x84>
 8001118:	686b      	ldr	r3, [r5, #4]
 800111a:	f5b3 3f80 	cmp.w	r3, #65536	; 0x10000
 800111e:	d112      	bne.n	8001146 <HAL_RCC_OscConfig+0x8a>
 8001120:	6823      	ldr	r3, [r4, #0]
 8001122:	f443 3380 	orr.w	r3, r3, #65536	; 0x10000
 8001126:	6023      	str	r3, [r4, #0]
 8001128:	f7ff fe6c 	bl	8000e04 <HAL_GetTick>
 800112c:	4606      	mov	r6, r0
 800112e:	6823      	ldr	r3, [r4, #0]
 8001130:	0398      	lsls	r0, r3, #14
 8001132:	d4ca      	bmi.n	80010ca <HAL_RCC_OscConfig+0xe>
 8001134:	f7ff fe66 	bl	8000e04 <HAL_GetTick>
 8001138:	1b80      	subs	r0, r0, r6
 800113a:	2864      	cmp	r0, #100	; 0x64
 800113c:	d9f7      	bls.n	800112e <HAL_RCC_OscConfig+0x72>
 800113e:	2003      	movs	r0, #3
 8001140:	b002      	add	sp, #8
 8001142:	e8bd 81f0 	ldmia.w	sp!, {r4, r5, r6, r7, r8, pc}
 8001146:	b99b      	cbnz	r3, 8001170 <HAL_RCC_OscConfig+0xb4>
 8001148:	6823      	ldr	r3, [r4, #0]
 800114a:	f423 3380 	bic.w	r3, r3, #65536	; 0x10000
 800114e:	6023      	str	r3, [r4, #0]
 8001150:	6823      	ldr	r3, [r4, #0]
 8001152:	f423 2380 	bic.w	r3, r3, #262144	; 0x40000
 8001156:	6023      	str	r3, [r4, #0]
 8001158:	f7ff fe54 	bl	8000e04 <HAL_GetTick>
 800115c:	4606      	mov	r6, r0
 800115e:	6823      	ldr	r3, [r4, #0]
 8001160:	0399      	lsls	r1, r3, #14
 8001162:	d5b2      	bpl.n	80010ca <HAL_RCC_OscConfig+0xe>
 8001164:	f7ff fe4e 	bl	8000e04 <HAL_GetTick>
 8001168:	1b80      	subs	r0, r0, r6
 800116a:	2864      	cmp	r0, #100	; 0x64
 800116c:	d9f7      	bls.n	800115e <HAL_RCC_OscConfig+0xa2>
 800116e:	e7e6      	b.n	800113e <HAL_RCC_OscConfig+0x82>
 8001170:	f5b3 2fa0 	cmp.w	r3, #327680	; 0x50000
 8001174:	6823      	ldr	r3, [r4, #0]
 8001176:	d103      	bne.n	8001180 <HAL_RCC_OscConfig+0xc4>
 8001178:	f443 2380 	orr.w	r3, r3, #262144	; 0x40000
 800117c:	6023      	str	r3, [r4, #0]
 800117e:	e7cf      	b.n	8001120 <HAL_RCC_OscConfig+0x64>
 8001180:	f423 3380 	bic.w	r3, r3, #65536	; 0x10000
 8001184:	6023      	str	r3, [r4, #0]
 8001186:	6823      	ldr	r3, [r4, #0]
 8001188:	f423 2380 	bic.w	r3, r3, #262144	; 0x40000
 800118c:	e7cb      	b.n	8001126 <HAL_RCC_OscConfig+0x6a>
 800118e:	4c68      	ldr	r4, [pc, #416]	; (8001330 <HAL_RCC_OscConfig+0x274>)
 8001190:	6863      	ldr	r3, [r4, #4]
 8001192:	f013 0f0c 	tst.w	r3, #12
 8001196:	d007      	beq.n	80011a8 <HAL_RCC_OscConfig+0xec>
 8001198:	6863      	ldr	r3, [r4, #4]
 800119a:	f003 030c 	and.w	r3, r3, #12
 800119e:	2b08      	cmp	r3, #8
 80011a0:	d110      	bne.n	80011c4 <HAL_RCC_OscConfig+0x108>
 80011a2:	6863      	ldr	r3, [r4, #4]
 80011a4:	03da      	lsls	r2, r3, #15
 80011a6:	d40d      	bmi.n	80011c4 <HAL_RCC_OscConfig+0x108>
 80011a8:	6823      	ldr	r3, [r4, #0]
 80011aa:	079b      	lsls	r3, r3, #30
 80011ac:	d502      	bpl.n	80011b4 <HAL_RCC_OscConfig+0xf8>
 80011ae:	692b      	ldr	r3, [r5, #16]
 80011b0:	2b01      	cmp	r3, #1
 80011b2:	d1af      	bne.n	8001114 <HAL_RCC_OscConfig+0x58>
 80011b4:	6823      	ldr	r3, [r4, #0]
 80011b6:	696a      	ldr	r2, [r5, #20]
 80011b8:	f023 03f8 	bic.w	r3, r3, #248	; 0xf8
 80011bc:	ea43 03c2 	orr.w	r3, r3, r2, lsl #3
 80011c0:	6023      	str	r3, [r4, #0]
 80011c2:	e785      	b.n	80010d0 <HAL_RCC_OscConfig+0x14>
 80011c4:	692a      	ldr	r2, [r5, #16]
 80011c6:	4b5b      	ldr	r3, [pc, #364]	; (8001334 <HAL_RCC_OscConfig+0x278>)
 80011c8:	b16a      	cbz	r2, 80011e6 <HAL_RCC_OscConfig+0x12a>
 80011ca:	2201      	movs	r2, #1
 80011cc:	601a      	str	r2, [r3, #0]
 80011ce:	f7ff fe19 	bl	8000e04 <HAL_GetTick>
 80011d2:	4606      	mov	r6, r0
 80011d4:	6823      	ldr	r3, [r4, #0]
 80011d6:	079f      	lsls	r7, r3, #30
 80011d8:	d4ec      	bmi.n	80011b4 <HAL_RCC_OscConfig+0xf8>
 80011da:	f7ff fe13 	bl	8000e04 <HAL_GetTick>
 80011de:	1b80      	subs	r0, r0, r6
 80011e0:	2802      	cmp	r0, #2
 80011e2:	d9f7      	bls.n	80011d4 <HAL_RCC_OscConfig+0x118>
 80011e4:	e7ab      	b.n	800113e <HAL_RCC_OscConfig+0x82>
 80011e6:	601a      	str	r2, [r3, #0]
 80011e8:	f7ff fe0c 	bl	8000e04 <HAL_GetTick>
 80011ec:	4606      	mov	r6, r0
 80011ee:	6823      	ldr	r3, [r4, #0]
 80011f0:	0798      	lsls	r0, r3, #30
 80011f2:	f57f af6d 	bpl.w	80010d0 <HAL_RCC_OscConfig+0x14>
 80011f6:	f7ff fe05 	bl	8000e04 <HAL_GetTick>
 80011fa:	1b80      	subs	r0, r0, r6
 80011fc:	2802      	cmp	r0, #2
 80011fe:	d9f6      	bls.n	80011ee <HAL_RCC_OscConfig+0x132>
 8001200:	e79d      	b.n	800113e <HAL_RCC_OscConfig+0x82>
 8001202:	69aa      	ldr	r2, [r5, #24]
 8001204:	4e4a      	ldr	r6, [pc, #296]	; (8001330 <HAL_RCC_OscConfig+0x274>)
 8001206:	4b4b      	ldr	r3, [pc, #300]	; (8001334 <HAL_RCC_OscConfig+0x278>)
 8001208:	b1e2      	cbz	r2, 8001244 <HAL_RCC_OscConfig+0x188>
 800120a:	2201      	movs	r2, #1
 800120c:	f8c3 2480 	str.w	r2, [r3, #1152]	; 0x480
 8001210:	f7ff fdf8 	bl	8000e04 <HAL_GetTick>
 8001214:	4604      	mov	r4, r0
 8001216:	6a73      	ldr	r3, [r6, #36]	; 0x24
 8001218:	079b      	lsls	r3, r3, #30
 800121a:	d50d      	bpl.n	8001238 <HAL_RCC_OscConfig+0x17c>
 800121c:	f44f 52fa 	mov.w	r2, #8000	; 0x1f40
 8001220:	4b45      	ldr	r3, [pc, #276]	; (8001338 <HAL_RCC_OscConfig+0x27c>)
 8001222:	681b      	ldr	r3, [r3, #0]
 8001224:	fbb3 f3f2 	udiv	r3, r3, r2
 8001228:	9301      	str	r3, [sp, #4]
 800122a:	bf00      	nop
 800122c:	9b01      	ldr	r3, [sp, #4]
 800122e:	1e5a      	subs	r2, r3, #1
 8001230:	9201      	str	r2, [sp, #4]
 8001232:	2b00      	cmp	r3, #0
 8001234:	d1f9      	bne.n	800122a <HAL_RCC_OscConfig+0x16e>
 8001236:	e74f      	b.n	80010d8 <HAL_RCC_OscConfig+0x1c>
 8001238:	f7ff fde4 	bl	8000e04 <HAL_GetTick>
 800123c:	1b00      	subs	r0, r0, r4
 800123e:	2802      	cmp	r0, #2
 8001240:	d9e9      	bls.n	8001216 <HAL_RCC_OscConfig+0x15a>
 8001242:	e77c      	b.n	800113e <HAL_RCC_OscConfig+0x82>
 8001244:	f8c3 2480 	str.w	r2, [r3, #1152]	; 0x480
 8001248:	f7ff fddc 	bl	8000e04 <HAL_GetTick>
 800124c:	4604      	mov	r4, r0
 800124e:	6a73      	ldr	r3, [r6, #36]	; 0x24
 8001250:	079f      	lsls	r7, r3, #30
 8001252:	f57f af41 	bpl.w	80010d8 <HAL_RCC_OscConfig+0x1c>
 8001256:	f7ff fdd5 	bl	8000e04 <HAL_GetTick>
 800125a:	1b00      	subs	r0, r0, r4
 800125c:	2802      	cmp	r0, #2
 800125e:	d9f6      	bls.n	800124e <HAL_RCC_OscConfig+0x192>
 8001260:	e76d      	b.n	800113e <HAL_RCC_OscConfig+0x82>
 8001262:	4c33      	ldr	r4, [pc, #204]	; (8001330 <HAL_RCC_OscConfig+0x274>)
 8001264:	69e3      	ldr	r3, [r4, #28]
 8001266:	00d8      	lsls	r0, r3, #3
 8001268:	d424      	bmi.n	80012b4 <HAL_RCC_OscConfig+0x1f8>
 800126a:	2701      	movs	r7, #1
 800126c:	69e3      	ldr	r3, [r4, #28]
 800126e:	f043 5380 	orr.w	r3, r3, #268435456	; 0x10000000
 8001272:	61e3      	str	r3, [r4, #28]
 8001274:	69e3      	ldr	r3, [r4, #28]
 8001276:	f003 5380 	and.w	r3, r3, #268435456	; 0x10000000
 800127a:	9300      	str	r3, [sp, #0]
 800127c:	9b00      	ldr	r3, [sp, #0]
 800127e:	4e2f      	ldr	r6, [pc, #188]	; (800133c <HAL_RCC_OscConfig+0x280>)
 8001280:	6833      	ldr	r3, [r6, #0]
 8001282:	05d9      	lsls	r1, r3, #23
 8001284:	d518      	bpl.n	80012b8 <HAL_RCC_OscConfig+0x1fc>
 8001286:	68eb      	ldr	r3, [r5, #12]
 8001288:	2b01      	cmp	r3, #1
 800128a:	d126      	bne.n	80012da <HAL_RCC_OscConfig+0x21e>
 800128c:	6a23      	ldr	r3, [r4, #32]
 800128e:	f043 0301 	orr.w	r3, r3, #1
 8001292:	6223      	str	r3, [r4, #32]
 8001294:	f7ff fdb6 	bl	8000e04 <HAL_GetTick>
 8001298:	f241 3888 	movw	r8, #5000	; 0x1388
 800129c:	4606      	mov	r6, r0
 800129e:	6a23      	ldr	r3, [r4, #32]
 80012a0:	079b      	lsls	r3, r3, #30
 80012a2:	d53f      	bpl.n	8001324 <HAL_RCC_OscConfig+0x268>
 80012a4:	2f00      	cmp	r7, #0
 80012a6:	f43f af1b 	beq.w	80010e0 <HAL_RCC_OscConfig+0x24>
 80012aa:	69e3      	ldr	r3, [r4, #28]
 80012ac:	f023 5380 	bic.w	r3, r3, #268435456	; 0x10000000
 80012b0:	61e3      	str	r3, [r4, #28]
 80012b2:	e715      	b.n	80010e0 <HAL_RCC_OscConfig+0x24>
 80012b4:	2700      	movs	r7, #0
 80012b6:	e7e2      	b.n	800127e <HAL_RCC_OscConfig+0x1c2>
 80012b8:	6833      	ldr	r3, [r6, #0]
 80012ba:	f443 7380 	orr.w	r3, r3, #256	; 0x100
 80012be:	6033      	str	r3, [r6, #0]
 80012c0:	f7ff fda0 	bl	8000e04 <HAL_GetTick>
 80012c4:	4680      	mov	r8, r0
 80012c6:	6833      	ldr	r3, [r6, #0]
 80012c8:	05da      	lsls	r2, r3, #23
 80012ca:	d4dc      	bmi.n	8001286 <HAL_RCC_OscConfig+0x1ca>
 80012cc:	f7ff fd9a 	bl	8000e04 <HAL_GetTick>
 80012d0:	eba0 0008 	sub.w	r0, r0, r8
 80012d4:	2864      	cmp	r0, #100	; 0x64
 80012d6:	d9f6      	bls.n	80012c6 <HAL_RCC_OscConfig+0x20a>
 80012d8:	e731      	b.n	800113e <HAL_RCC_OscConfig+0x82>
 80012da:	b9ab      	cbnz	r3, 8001308 <HAL_RCC_OscConfig+0x24c>
 80012dc:	6a23      	ldr	r3, [r4, #32]
 80012de:	f241 3888 	movw	r8, #5000	; 0x1388
 80012e2:	f023 0301 	bic.w	r3, r3, #1
 80012e6:	6223      	str	r3, [r4, #32]
 80012e8:	6a23      	ldr	r3, [r4, #32]
 80012ea:	f023 0304 	bic.w	r3, r3, #4
 80012ee:	6223      	str	r3, [r4, #32]
 80012f0:	f7ff fd88 	bl	8000e04 <HAL_GetTick>
 80012f4:	4606      	mov	r6, r0
 80012f6:	6a23      	ldr	r3, [r4, #32]
 80012f8:	0798      	lsls	r0, r3, #30
 80012fa:	d5d3      	bpl.n	80012a4 <HAL_RCC_OscConfig+0x1e8>
 80012fc:	f7ff fd82 	bl	8000e04 <HAL_GetTick>
 8001300:	1b80      	subs	r0, r0, r6
 8001302:	4540      	cmp	r0, r8
 8001304:	d9f7      	bls.n	80012f6 <HAL_RCC_OscConfig+0x23a>
 8001306:	e71a      	b.n	800113e <HAL_RCC_OscConfig+0x82>
 8001308:	2b05      	cmp	r3, #5
 800130a:	6a23      	ldr	r3, [r4, #32]
 800130c:	d103      	bne.n	8001316 <HAL_RCC_OscConfig+0x25a>
 800130e:	f043 0304 	orr.w	r3, r3, #4
 8001312:	6223      	str	r3, [r4, #32]
 8001314:	e7ba      	b.n	800128c <HAL_RCC_OscConfig+0x1d0>
 8001316:	f023 0301 	bic.w	r3, r3, #1
 800131a:	6223      	str	r3, [r4, #32]
 800131c:	6a23      	ldr	r3, [r4, #32]
 800131e:	f023 0304 	bic.w	r3, r3, #4
 8001322:	e7b6      	b.n	8001292 <HAL_RCC_OscConfig+0x1d6>
 8001324:	f7ff fd6e 	bl	8000e04 <HAL_GetTick>
 8001328:	1b80      	subs	r0, r0, r6
 800132a:	4540      	cmp	r0, r8
 800132c:	d9b7      	bls.n	800129e <HAL_RCC_OscConfig+0x1e2>
 800132e:	e706      	b.n	800113e <HAL_RCC_OscConfig+0x82>
 8001330:	40021000 	.word	0x40021000
 8001334:	42420000 	.word	0x42420000
 8001338:	20000044 	.word	0x20000044
 800133c:	40007000 	.word	0x40007000
 8001340:	4c2a      	ldr	r4, [pc, #168]	; (80013ec <HAL_RCC_OscConfig+0x330>)
 8001342:	6863      	ldr	r3, [r4, #4]
 8001344:	f003 030c 	and.w	r3, r3, #12
 8001348:	2b08      	cmp	r3, #8
 800134a:	d03e      	beq.n	80013ca <HAL_RCC_OscConfig+0x30e>
 800134c:	2200      	movs	r2, #0
 800134e:	4b28      	ldr	r3, [pc, #160]	; (80013f0 <HAL_RCC_OscConfig+0x334>)
 8001350:	2802      	cmp	r0, #2
 8001352:	661a      	str	r2, [r3, #96]	; 0x60
 8001354:	d12c      	bne.n	80013b0 <HAL_RCC_OscConfig+0x2f4>
 8001356:	f7ff fd55 	bl	8000e04 <HAL_GetTick>
 800135a:	4606      	mov	r6, r0
 800135c:	6823      	ldr	r3, [r4, #0]
 800135e:	0199      	lsls	r1, r3, #6
 8001360:	d420      	bmi.n	80013a4 <HAL_RCC_OscConfig+0x2e8>
 8001362:	6a2b      	ldr	r3, [r5, #32]
 8001364:	f5b3 3f80 	cmp.w	r3, #65536	; 0x10000
 8001368:	d105      	bne.n	8001376 <HAL_RCC_OscConfig+0x2ba>
 800136a:	6862      	ldr	r2, [r4, #4]
 800136c:	68a9      	ldr	r1, [r5, #8]
 800136e:	f422 3200 	bic.w	r2, r2, #131072	; 0x20000
 8001372:	430a      	orrs	r2, r1
 8001374:	6062      	str	r2, [r4, #4]
 8001376:	6a69      	ldr	r1, [r5, #36]	; 0x24
 8001378:	6862      	ldr	r2, [r4, #4]
 800137a:	430b      	orrs	r3, r1
 800137c:	f422 1274 	bic.w	r2, r2, #3997696	; 0x3d0000
 8001380:	4313      	orrs	r3, r2
 8001382:	2201      	movs	r2, #1
 8001384:	6063      	str	r3, [r4, #4]
 8001386:	4b1a      	ldr	r3, [pc, #104]	; (80013f0 <HAL_RCC_OscConfig+0x334>)
 8001388:	661a      	str	r2, [r3, #96]	; 0x60
 800138a:	f7ff fd3b 	bl	8000e04 <HAL_GetTick>
 800138e:	4605      	mov	r5, r0
 8001390:	6823      	ldr	r3, [r4, #0]
 8001392:	019a      	lsls	r2, r3, #6
 8001394:	f53f aea8 	bmi.w	80010e8 <HAL_RCC_OscConfig+0x2c>
 8001398:	f7ff fd34 	bl	8000e04 <HAL_GetTick>
 800139c:	1b40      	subs	r0, r0, r5
 800139e:	2802      	cmp	r0, #2
 80013a0:	d9f6      	bls.n	8001390 <HAL_RCC_OscConfig+0x2d4>
 80013a2:	e6cc      	b.n	800113e <HAL_RCC_OscConfig+0x82>
 80013a4:	f7ff fd2e 	bl	8000e04 <HAL_GetTick>
 80013a8:	1b80      	subs	r0, r0, r6
 80013aa:	2802      	cmp	r0, #2
 80013ac:	d9d6      	bls.n	800135c <HAL_RCC_OscConfig+0x2a0>
 80013ae:	e6c6      	b.n	800113e <HAL_RCC_OscConfig+0x82>
 80013b0:	f7ff fd28 	bl	8000e04 <HAL_GetTick>
 80013b4:	4605      	mov	r5, r0
 80013b6:	6823      	ldr	r3, [r4, #0]
 80013b8:	019b      	lsls	r3, r3, #6
 80013ba:	f57f ae95 	bpl.w	80010e8 <HAL_RCC_OscConfig+0x2c>
 80013be:	f7ff fd21 	bl	8000e04 <HAL_GetTick>
 80013c2:	1b40      	subs	r0, r0, r5
 80013c4:	2802      	cmp	r0, #2
 80013c6:	d9f6      	bls.n	80013b6 <HAL_RCC_OscConfig+0x2fa>
 80013c8:	e6b9      	b.n	800113e <HAL_RCC_OscConfig+0x82>
 80013ca:	2801      	cmp	r0, #1
 80013cc:	f43f aeb8 	beq.w	8001140 <HAL_RCC_OscConfig+0x84>
 80013d0:	6863      	ldr	r3, [r4, #4]
 80013d2:	6a2a      	ldr	r2, [r5, #32]
 80013d4:	f403 3180 	and.w	r1, r3, #65536	; 0x10000
 80013d8:	4291      	cmp	r1, r2
 80013da:	f47f ae9b 	bne.w	8001114 <HAL_RCC_OscConfig+0x58>
 80013de:	6a6a      	ldr	r2, [r5, #36]	; 0x24
 80013e0:	f403 1370 	and.w	r3, r3, #3932160	; 0x3c0000
 80013e4:	4293      	cmp	r3, r2
 80013e6:	f43f ae7f 	beq.w	80010e8 <HAL_RCC_OscConfig+0x2c>
 80013ea:	e693      	b.n	8001114 <HAL_RCC_OscConfig+0x58>
 80013ec:	40021000 	.word	0x40021000
 80013f0:	42420000 	.word	0x42420000

080013f4 <HAL_RCC_GetSysClockFreq>:
 80013f4:	4a0d      	ldr	r2, [pc, #52]	; (800142c <HAL_RCC_GetSysClockFreq+0x38>)
 80013f6:	6853      	ldr	r3, [r2, #4]
 80013f8:	f003 010c 	and.w	r1, r3, #12
 80013fc:	2908      	cmp	r1, #8
 80013fe:	d112      	bne.n	8001426 <HAL_RCC_GetSysClockFreq+0x32>
 8001400:	480b      	ldr	r0, [pc, #44]	; (8001430 <HAL_RCC_GetSysClockFreq+0x3c>)
 8001402:	f3c3 4183 	ubfx	r1, r3, #18, #4
 8001406:	03db      	lsls	r3, r3, #15
 8001408:	5c40      	ldrb	r0, [r0, r1]
 800140a:	d509      	bpl.n	8001420 <HAL_RCC_GetSysClockFreq+0x2c>
 800140c:	6853      	ldr	r3, [r2, #4]
 800140e:	4a09      	ldr	r2, [pc, #36]	; (8001434 <HAL_RCC_GetSysClockFreq+0x40>)
 8001410:	f3c3 4340 	ubfx	r3, r3, #17, #1
 8001414:	4350      	muls	r0, r2
 8001416:	4a08      	ldr	r2, [pc, #32]	; (8001438 <HAL_RCC_GetSysClockFreq+0x44>)
 8001418:	5cd3      	ldrb	r3, [r2, r3]
 800141a:	fbb0 f0f3 	udiv	r0, r0, r3
 800141e:	4770      	bx	lr
 8001420:	4b06      	ldr	r3, [pc, #24]	; (800143c <HAL_RCC_GetSysClockFreq+0x48>)
 8001422:	4358      	muls	r0, r3
 8001424:	4770      	bx	lr
 8001426:	4803      	ldr	r0, [pc, #12]	; (8001434 <HAL_RCC_GetSysClockFreq+0x40>)
 8001428:	4770      	bx	lr
 800142a:	bf00      	nop
 800142c:	40021000 	.word	0x40021000
 8001430:	08003ae1 	.word	0x08003ae1
 8001434:	007a1200 	.word	0x007a1200
 8001438:	08003af1 	.word	0x08003af1
 800143c:	003d0900 	.word	0x003d0900

08001440 <HAL_RCC_ClockConfig>:
 8001440:	e92d 41f0 	stmdb	sp!, {r4, r5, r6, r7, r8, lr}
 8001444:	460d      	mov	r5, r1
 8001446:	4604      	mov	r4, r0
 8001448:	b910      	cbnz	r0, 8001450 <HAL_RCC_ClockConfig+0x10>
 800144a:	2001      	movs	r0, #1
 800144c:	e8bd 81f0 	ldmia.w	sp!, {r4, r5, r6, r7, r8, pc}
 8001450:	4a44      	ldr	r2, [pc, #272]	; (8001564 <HAL_RCC_ClockConfig+0x124>)
 8001452:	6813      	ldr	r3, [r2, #0]
 8001454:	f003 0307 	and.w	r3, r3, #7
 8001458:	428b      	cmp	r3, r1
 800145a:	d328      	bcc.n	80014ae <HAL_RCC_ClockConfig+0x6e>
 800145c:	6821      	ldr	r1, [r4, #0]
 800145e:	078e      	lsls	r6, r1, #30
 8001460:	d430      	bmi.n	80014c4 <HAL_RCC_ClockConfig+0x84>
 8001462:	07ca      	lsls	r2, r1, #31
 8001464:	d443      	bmi.n	80014ee <HAL_RCC_ClockConfig+0xae>
 8001466:	4a3f      	ldr	r2, [pc, #252]	; (8001564 <HAL_RCC_ClockConfig+0x124>)
 8001468:	6813      	ldr	r3, [r2, #0]
 800146a:	f003 0307 	and.w	r3, r3, #7
 800146e:	42ab      	cmp	r3, r5
 8001470:	d865      	bhi.n	800153e <HAL_RCC_ClockConfig+0xfe>
 8001472:	6822      	ldr	r2, [r4, #0]
 8001474:	4d3c      	ldr	r5, [pc, #240]	; (8001568 <HAL_RCC_ClockConfig+0x128>)
 8001476:	f012 0f04 	tst.w	r2, #4
 800147a:	d16c      	bne.n	8001556 <HAL_RCC_ClockConfig+0x116>
 800147c:	0713      	lsls	r3, r2, #28
 800147e:	d506      	bpl.n	800148e <HAL_RCC_ClockConfig+0x4e>
 8001480:	686b      	ldr	r3, [r5, #4]
 8001482:	6922      	ldr	r2, [r4, #16]
 8001484:	f423 5360 	bic.w	r3, r3, #14336	; 0x3800
 8001488:	ea43 03c2 	orr.w	r3, r3, r2, lsl #3
 800148c:	606b      	str	r3, [r5, #4]
 800148e:	f7ff ffb1 	bl	80013f4 <HAL_RCC_GetSysClockFreq>
 8001492:	686b      	ldr	r3, [r5, #4]
 8001494:	4a35      	ldr	r2, [pc, #212]	; (800156c <HAL_RCC_ClockConfig+0x12c>)
 8001496:	f3c3 1303 	ubfx	r3, r3, #4, #4
 800149a:	5cd3      	ldrb	r3, [r2, r3]
 800149c:	40d8      	lsrs	r0, r3
 800149e:	4b34      	ldr	r3, [pc, #208]	; (8001570 <HAL_RCC_ClockConfig+0x130>)
 80014a0:	6018      	str	r0, [r3, #0]
 80014a2:	4b34      	ldr	r3, [pc, #208]	; (8001574 <HAL_RCC_ClockConfig+0x134>)
 80014a4:	6818      	ldr	r0, [r3, #0]
 80014a6:	f7ff fc6b 	bl	8000d80 <HAL_InitTick>
 80014aa:	2000      	movs	r0, #0
 80014ac:	e7ce      	b.n	800144c <HAL_RCC_ClockConfig+0xc>
 80014ae:	6813      	ldr	r3, [r2, #0]
 80014b0:	f023 0307 	bic.w	r3, r3, #7
 80014b4:	430b      	orrs	r3, r1
 80014b6:	6013      	str	r3, [r2, #0]
 80014b8:	6813      	ldr	r3, [r2, #0]
 80014ba:	f003 0307 	and.w	r3, r3, #7
 80014be:	428b      	cmp	r3, r1
 80014c0:	d1c3      	bne.n	800144a <HAL_RCC_ClockConfig+0xa>
 80014c2:	e7cb      	b.n	800145c <HAL_RCC_ClockConfig+0x1c>
 80014c4:	4b28      	ldr	r3, [pc, #160]	; (8001568 <HAL_RCC_ClockConfig+0x128>)
 80014c6:	f011 0f04 	tst.w	r1, #4
 80014ca:	bf1e      	ittt	ne
 80014cc:	685a      	ldrne	r2, [r3, #4]
 80014ce:	f442 62e0 	orrne.w	r2, r2, #1792	; 0x700
 80014d2:	605a      	strne	r2, [r3, #4]
 80014d4:	0708      	lsls	r0, r1, #28
 80014d6:	bf42      	ittt	mi
 80014d8:	685a      	ldrmi	r2, [r3, #4]
 80014da:	f442 5260 	orrmi.w	r2, r2, #14336	; 0x3800
 80014de:	605a      	strmi	r2, [r3, #4]
 80014e0:	685a      	ldr	r2, [r3, #4]
 80014e2:	68a0      	ldr	r0, [r4, #8]
 80014e4:	f022 02f0 	bic.w	r2, r2, #240	; 0xf0
 80014e8:	4302      	orrs	r2, r0
 80014ea:	605a      	str	r2, [r3, #4]
 80014ec:	e7b9      	b.n	8001462 <HAL_RCC_ClockConfig+0x22>
 80014ee:	6862      	ldr	r2, [r4, #4]
 80014f0:	4e1d      	ldr	r6, [pc, #116]	; (8001568 <HAL_RCC_ClockConfig+0x128>)
 80014f2:	2a01      	cmp	r2, #1
 80014f4:	6833      	ldr	r3, [r6, #0]
 80014f6:	d11a      	bne.n	800152e <HAL_RCC_ClockConfig+0xee>
 80014f8:	f413 3f00 	tst.w	r3, #131072	; 0x20000
 80014fc:	d0a5      	beq.n	800144a <HAL_RCC_ClockConfig+0xa>
 80014fe:	6873      	ldr	r3, [r6, #4]
 8001500:	f241 3888 	movw	r8, #5000	; 0x1388
 8001504:	f023 0303 	bic.w	r3, r3, #3
 8001508:	4313      	orrs	r3, r2
 800150a:	6073      	str	r3, [r6, #4]
 800150c:	f7ff fc7a 	bl	8000e04 <HAL_GetTick>
 8001510:	4607      	mov	r7, r0
 8001512:	6873      	ldr	r3, [r6, #4]
 8001514:	6862      	ldr	r2, [r4, #4]
 8001516:	f003 030c 	and.w	r3, r3, #12
 800151a:	ebb3 0f82 	cmp.w	r3, r2, lsl #2
 800151e:	d0a2      	beq.n	8001466 <HAL_RCC_ClockConfig+0x26>
 8001520:	f7ff fc70 	bl	8000e04 <HAL_GetTick>
 8001524:	1bc0      	subs	r0, r0, r7
 8001526:	4540      	cmp	r0, r8
 8001528:	d9f3      	bls.n	8001512 <HAL_RCC_ClockConfig+0xd2>
 800152a:	2003      	movs	r0, #3
 800152c:	e78e      	b.n	800144c <HAL_RCC_ClockConfig+0xc>
 800152e:	2a02      	cmp	r2, #2
 8001530:	d102      	bne.n	8001538 <HAL_RCC_ClockConfig+0xf8>
 8001532:	f013 7f00 	tst.w	r3, #33554432	; 0x2000000
 8001536:	e7e1      	b.n	80014fc <HAL_RCC_ClockConfig+0xbc>
 8001538:	f013 0f02 	tst.w	r3, #2
 800153c:	e7de      	b.n	80014fc <HAL_RCC_ClockConfig+0xbc>
 800153e:	6813      	ldr	r3, [r2, #0]
 8001540:	f023 0307 	bic.w	r3, r3, #7
 8001544:	432b      	orrs	r3, r5
 8001546:	6013      	str	r3, [r2, #0]
 8001548:	6813      	ldr	r3, [r2, #0]
 800154a:	f003 0307 	and.w	r3, r3, #7
 800154e:	42ab      	cmp	r3, r5
 8001550:	f47f af7b 	bne.w	800144a <HAL_RCC_ClockConfig+0xa>
 8001554:	e78d      	b.n	8001472 <HAL_RCC_ClockConfig+0x32>
 8001556:	686b      	ldr	r3, [r5, #4]
 8001558:	68e1      	ldr	r1, [r4, #12]
 800155a:	f423 63e0 	bic.w	r3, r3, #1792	; 0x700
 800155e:	430b      	orrs	r3, r1
 8001560:	606b      	str	r3, [r5, #4]
 8001562:	e78b      	b.n	800147c <HAL_RCC_ClockConfig+0x3c>
 8001564:	40022000 	.word	0x40022000
 8001568:	40021000 	.word	0x40021000
 800156c:	08003ac9 	.word	0x08003ac9
 8001570:	20000044 	.word	0x20000044
 8001574:	2000004c 	.word	0x2000004c

08001578 <HAL_RCC_GetPCLK1Freq>:
 8001578:	4b04      	ldr	r3, [pc, #16]	; (800158c <HAL_RCC_GetPCLK1Freq+0x14>)
 800157a:	4a05      	ldr	r2, [pc, #20]	; (8001590 <HAL_RCC_GetPCLK1Freq+0x18>)
 800157c:	685b      	ldr	r3, [r3, #4]
 800157e:	f3c3 2302 	ubfx	r3, r3, #8, #3
 8001582:	5cd3      	ldrb	r3, [r2, r3]
 8001584:	4a03      	ldr	r2, [pc, #12]	; (8001594 <HAL_RCC_GetPCLK1Freq+0x1c>)
 8001586:	6810      	ldr	r0, [r2, #0]
 8001588:	40d8      	lsrs	r0, r3
 800158a:	4770      	bx	lr
 800158c:	40021000 	.word	0x40021000
 8001590:	08003ad9 	.word	0x08003ad9
 8001594:	20000044 	.word	0x20000044

08001598 <HAL_RCC_GetPCLK2Freq>:
 8001598:	4b04      	ldr	r3, [pc, #16]	; (80015ac <HAL_RCC_GetPCLK2Freq+0x14>)
 800159a:	4a05      	ldr	r2, [pc, #20]	; (80015b0 <HAL_RCC_GetPCLK2Freq+0x18>)
 800159c:	685b      	ldr	r3, [r3, #4]
 800159e:	f3c3 23c2 	ubfx	r3, r3, #11, #3
 80015a2:	5cd3      	ldrb	r3, [r2, r3]
 80015a4:	4a03      	ldr	r2, [pc, #12]	; (80015b4 <HAL_RCC_GetPCLK2Freq+0x1c>)
 80015a6:	6810      	ldr	r0, [r2, #0]
 80015a8:	40d8      	lsrs	r0, r3
 80015aa:	4770      	bx	lr
 80015ac:	40021000 	.word	0x40021000
 80015b0:	08003ad9 	.word	0x08003ad9
 80015b4:	20000044 	.word	0x20000044

080015b8 <HAL_RCCEx_PeriphCLKConfig>:
 80015b8:	6803      	ldr	r3, [r0, #0]
 80015ba:	e92d 41f3 	stmdb	sp!, {r0, r1, r4, r5, r6, r7, r8, lr}
 80015be:	07d9      	lsls	r1, r3, #31
 80015c0:	4605      	mov	r5, r0
 80015c2:	d520      	bpl.n	8001606 <HAL_RCCEx_PeriphCLKConfig+0x4e>
 80015c4:	4c36      	ldr	r4, [pc, #216]	; (80016a0 <HAL_RCCEx_PeriphCLKConfig+0xe8>)
 80015c6:	69e3      	ldr	r3, [r4, #28]
 80015c8:	00da      	lsls	r2, r3, #3
 80015ca:	d432      	bmi.n	8001632 <HAL_RCCEx_PeriphCLKConfig+0x7a>
 80015cc:	2601      	movs	r6, #1
 80015ce:	69e3      	ldr	r3, [r4, #28]
 80015d0:	f043 5380 	orr.w	r3, r3, #268435456	; 0x10000000
 80015d4:	61e3      	str	r3, [r4, #28]
 80015d6:	69e3      	ldr	r3, [r4, #28]
 80015d8:	f003 5380 	and.w	r3, r3, #268435456	; 0x10000000
 80015dc:	9301      	str	r3, [sp, #4]
 80015de:	9b01      	ldr	r3, [sp, #4]
 80015e0:	4f30      	ldr	r7, [pc, #192]	; (80016a4 <HAL_RCCEx_PeriphCLKConfig+0xec>)
 80015e2:	683b      	ldr	r3, [r7, #0]
 80015e4:	05db      	lsls	r3, r3, #23
 80015e6:	d526      	bpl.n	8001636 <HAL_RCCEx_PeriphCLKConfig+0x7e>
 80015e8:	6a23      	ldr	r3, [r4, #32]
 80015ea:	f413 7340 	ands.w	r3, r3, #768	; 0x300
 80015ee:	d136      	bne.n	800165e <HAL_RCCEx_PeriphCLKConfig+0xa6>
 80015f0:	6a23      	ldr	r3, [r4, #32]
 80015f2:	686a      	ldr	r2, [r5, #4]
 80015f4:	f423 7340 	bic.w	r3, r3, #768	; 0x300
 80015f8:	4313      	orrs	r3, r2
 80015fa:	6223      	str	r3, [r4, #32]
 80015fc:	b11e      	cbz	r6, 8001606 <HAL_RCCEx_PeriphCLKConfig+0x4e>
 80015fe:	69e3      	ldr	r3, [r4, #28]
 8001600:	f023 5380 	bic.w	r3, r3, #268435456	; 0x10000000
 8001604:	61e3      	str	r3, [r4, #28]
 8001606:	6828      	ldr	r0, [r5, #0]
 8001608:	0783      	lsls	r3, r0, #30
 800160a:	d506      	bpl.n	800161a <HAL_RCCEx_PeriphCLKConfig+0x62>
 800160c:	4924      	ldr	r1, [pc, #144]	; (80016a0 <HAL_RCCEx_PeriphCLKConfig+0xe8>)
 800160e:	68ab      	ldr	r3, [r5, #8]
 8001610:	684a      	ldr	r2, [r1, #4]
 8001612:	f422 4240 	bic.w	r2, r2, #49152	; 0xc000
 8001616:	431a      	orrs	r2, r3
 8001618:	604a      	str	r2, [r1, #4]
 800161a:	f010 0010 	ands.w	r0, r0, #16
 800161e:	d01b      	beq.n	8001658 <HAL_RCCEx_PeriphCLKConfig+0xa0>
 8001620:	4a1f      	ldr	r2, [pc, #124]	; (80016a0 <HAL_RCCEx_PeriphCLKConfig+0xe8>)
 8001622:	68e9      	ldr	r1, [r5, #12]
 8001624:	6853      	ldr	r3, [r2, #4]
 8001626:	2000      	movs	r0, #0
 8001628:	f423 0380 	bic.w	r3, r3, #4194304	; 0x400000
 800162c:	430b      	orrs	r3, r1
 800162e:	6053      	str	r3, [r2, #4]
 8001630:	e012      	b.n	8001658 <HAL_RCCEx_PeriphCLKConfig+0xa0>
 8001632:	2600      	movs	r6, #0
 8001634:	e7d4      	b.n	80015e0 <HAL_RCCEx_PeriphCLKConfig+0x28>
 8001636:	683b      	ldr	r3, [r7, #0]
 8001638:	f443 7380 	orr.w	r3, r3, #256	; 0x100
 800163c:	603b      	str	r3, [r7, #0]
 800163e:	f7ff fbe1 	bl	8000e04 <HAL_GetTick>
 8001642:	4680      	mov	r8, r0
 8001644:	683b      	ldr	r3, [r7, #0]
 8001646:	05d8      	lsls	r0, r3, #23
 8001648:	d4ce      	bmi.n	80015e8 <HAL_RCCEx_PeriphCLKConfig+0x30>
 800164a:	f7ff fbdb 	bl	8000e04 <HAL_GetTick>
 800164e:	eba0 0008 	sub.w	r0, r0, r8
 8001652:	2864      	cmp	r0, #100	; 0x64
 8001654:	d9f6      	bls.n	8001644 <HAL_RCCEx_PeriphCLKConfig+0x8c>
 8001656:	2003      	movs	r0, #3
 8001658:	b002      	add	sp, #8
 800165a:	e8bd 81f0 	ldmia.w	sp!, {r4, r5, r6, r7, r8, pc}
 800165e:	686a      	ldr	r2, [r5, #4]
 8001660:	f402 7240 	and.w	r2, r2, #768	; 0x300
 8001664:	429a      	cmp	r2, r3
 8001666:	d0c3      	beq.n	80015f0 <HAL_RCCEx_PeriphCLKConfig+0x38>
 8001668:	2001      	movs	r0, #1
 800166a:	4a0f      	ldr	r2, [pc, #60]	; (80016a8 <HAL_RCCEx_PeriphCLKConfig+0xf0>)
 800166c:	6a23      	ldr	r3, [r4, #32]
 800166e:	f8c2 0440 	str.w	r0, [r2, #1088]	; 0x440
 8001672:	2000      	movs	r0, #0
 8001674:	f423 7140 	bic.w	r1, r3, #768	; 0x300
 8001678:	f8c2 0440 	str.w	r0, [r2, #1088]	; 0x440
 800167c:	6221      	str	r1, [r4, #32]
 800167e:	07d9      	lsls	r1, r3, #31
 8001680:	d5b6      	bpl.n	80015f0 <HAL_RCCEx_PeriphCLKConfig+0x38>
 8001682:	f7ff fbbf 	bl	8000e04 <HAL_GetTick>
 8001686:	f241 3888 	movw	r8, #5000	; 0x1388
 800168a:	4607      	mov	r7, r0
 800168c:	6a23      	ldr	r3, [r4, #32]
 800168e:	079a      	lsls	r2, r3, #30
 8001690:	d4ae      	bmi.n	80015f0 <HAL_RCCEx_PeriphCLKConfig+0x38>
 8001692:	f7ff fbb7 	bl	8000e04 <HAL_GetTick>
 8001696:	1bc0      	subs	r0, r0, r7
 8001698:	4540      	cmp	r0, r8
 800169a:	d9f7      	bls.n	800168c <HAL_RCCEx_PeriphCLKConfig+0xd4>
 800169c:	e7db      	b.n	8001656 <HAL_RCCEx_PeriphCLKConfig+0x9e>
 800169e:	bf00      	nop
 80016a0:	40021000 	.word	0x40021000
 80016a4:	40007000 	.word	0x40007000
 80016a8:	42420000 	.word	0x42420000

080016ac <HAL_RCCEx_GetPeriphCLKFreq>:
 80016ac:	2802      	cmp	r0, #2
 80016ae:	b508      	push	{r3, lr}
 80016b0:	d044      	beq.n	800173c <HAL_RCCEx_GetPeriphCLKFreq+0x90>
 80016b2:	2810      	cmp	r0, #16
 80016b4:	d003      	beq.n	80016be <HAL_RCCEx_GetPeriphCLKFreq+0x12>
 80016b6:	2801      	cmp	r0, #1
 80016b8:	d022      	beq.n	8001700 <HAL_RCCEx_GetPeriphCLKFreq+0x54>
 80016ba:	2000      	movs	r0, #0
 80016bc:	e034      	b.n	8001728 <HAL_RCCEx_GetPeriphCLKFreq+0x7c>
 80016be:	4b25      	ldr	r3, [pc, #148]	; (8001754 <HAL_RCCEx_GetPeriphCLKFreq+0xa8>)
 80016c0:	685a      	ldr	r2, [r3, #4]
 80016c2:	6818      	ldr	r0, [r3, #0]
 80016c4:	f010 7080 	ands.w	r0, r0, #16777216	; 0x1000000
 80016c8:	d02e      	beq.n	8001728 <HAL_RCCEx_GetPeriphCLKFreq+0x7c>
 80016ca:	f3c2 4183 	ubfx	r1, r2, #18, #4
 80016ce:	4822      	ldr	r0, [pc, #136]	; (8001758 <HAL_RCCEx_GetPeriphCLKFreq+0xac>)
 80016d0:	03d2      	lsls	r2, r2, #15
 80016d2:	bf48      	it	mi
 80016d4:	685a      	ldrmi	r2, [r3, #4]
 80016d6:	5c40      	ldrb	r0, [r0, r1]
 80016d8:	bf41      	itttt	mi
 80016da:	4920      	ldrmi	r1, [pc, #128]	; (800175c <HAL_RCCEx_GetPeriphCLKFreq+0xb0>)
 80016dc:	f3c2 4240 	ubfxmi	r2, r2, #17, #1
 80016e0:	5c89      	ldrbmi	r1, [r1, r2]
 80016e2:	4a1f      	ldrmi	r2, [pc, #124]	; (8001760 <HAL_RCCEx_GetPeriphCLKFreq+0xb4>)
 80016e4:	685b      	ldr	r3, [r3, #4]
 80016e6:	bf4c      	ite	mi
 80016e8:	fbb2 f2f1 	udivmi	r2, r2, r1
 80016ec:	4a1d      	ldrpl	r2, [pc, #116]	; (8001764 <HAL_RCCEx_GetPeriphCLKFreq+0xb8>)
 80016ee:	025b      	lsls	r3, r3, #9
 80016f0:	fb02 f000 	mul.w	r0, r2, r0
 80016f4:	d418      	bmi.n	8001728 <HAL_RCCEx_GetPeriphCLKFreq+0x7c>
 80016f6:	2303      	movs	r3, #3
 80016f8:	0040      	lsls	r0, r0, #1
 80016fa:	fbb0 f0f3 	udiv	r0, r0, r3
 80016fe:	e013      	b.n	8001728 <HAL_RCCEx_GetPeriphCLKFreq+0x7c>
 8001700:	f240 3102 	movw	r1, #770	; 0x302
 8001704:	4a13      	ldr	r2, [pc, #76]	; (8001754 <HAL_RCCEx_GetPeriphCLKFreq+0xa8>)
 8001706:	6a13      	ldr	r3, [r2, #32]
 8001708:	4019      	ands	r1, r3
 800170a:	f5b1 7f81 	cmp.w	r1, #258	; 0x102
 800170e:	d01e      	beq.n	800174e <HAL_RCCEx_GetPeriphCLKFreq+0xa2>
 8001710:	f403 7340 	and.w	r3, r3, #768	; 0x300
 8001714:	f5b3 7f00 	cmp.w	r3, #512	; 0x200
 8001718:	d107      	bne.n	800172a <HAL_RCCEx_GetPeriphCLKFreq+0x7e>
 800171a:	f649 4340 	movw	r3, #40000	; 0x9c40
 800171e:	6a50      	ldr	r0, [r2, #36]	; 0x24
 8001720:	f010 0002 	ands.w	r0, r0, #2
 8001724:	bf18      	it	ne
 8001726:	4618      	movne	r0, r3
 8001728:	bd08      	pop	{r3, pc}
 800172a:	f5b3 7f40 	cmp.w	r3, #768	; 0x300
 800172e:	d1c4      	bne.n	80016ba <HAL_RCCEx_GetPeriphCLKFreq+0xe>
 8001730:	6810      	ldr	r0, [r2, #0]
 8001732:	f24f 4324 	movw	r3, #62500	; 0xf424
 8001736:	f410 3000 	ands.w	r0, r0, #131072	; 0x20000
 800173a:	e7f3      	b.n	8001724 <HAL_RCCEx_GetPeriphCLKFreq+0x78>
 800173c:	f7ff ff2c 	bl	8001598 <HAL_RCC_GetPCLK2Freq>
 8001740:	4b04      	ldr	r3, [pc, #16]	; (8001754 <HAL_RCCEx_GetPeriphCLKFreq+0xa8>)
 8001742:	685b      	ldr	r3, [r3, #4]
 8001744:	f3c3 3381 	ubfx	r3, r3, #14, #2
 8001748:	3301      	adds	r3, #1
 800174a:	005b      	lsls	r3, r3, #1
 800174c:	e7d5      	b.n	80016fa <HAL_RCCEx_GetPeriphCLKFreq+0x4e>
 800174e:	f44f 4000 	mov.w	r0, #32768	; 0x8000
 8001752:	e7e9      	b.n	8001728 <HAL_RCCEx_GetPeriphCLKFreq+0x7c>
 8001754:	40021000 	.word	0x40021000
 8001758:	08003af3 	.word	0x08003af3
 800175c:	08003b03 	.word	0x08003b03
 8001760:	007a1200 	.word	0x007a1200
 8001764:	003d0900 	.word	0x003d0900

08001768 <RTC_EnterInitMode>:
 8001768:	b538      	push	{r3, r4, r5, lr}
 800176a:	4604      	mov	r4, r0
 800176c:	f7ff fb4a 	bl	8000e04 <HAL_GetTick>
 8001770:	4605      	mov	r5, r0
 8001772:	6823      	ldr	r3, [r4, #0]
 8001774:	685a      	ldr	r2, [r3, #4]
 8001776:	0692      	lsls	r2, r2, #26
 8001778:	d505      	bpl.n	8001786 <RTC_EnterInitMode+0x1e>
 800177a:	2000      	movs	r0, #0
 800177c:	685a      	ldr	r2, [r3, #4]
 800177e:	f042 0210 	orr.w	r2, r2, #16
 8001782:	605a      	str	r2, [r3, #4]
 8001784:	bd38      	pop	{r3, r4, r5, pc}
 8001786:	f7ff fb3d 	bl	8000e04 <HAL_GetTick>
 800178a:	1b40      	subs	r0, r0, r5
 800178c:	f5b0 7f7a 	cmp.w	r0, #1000	; 0x3e8
 8001790:	d9ef      	bls.n	8001772 <RTC_EnterInitMode+0xa>
 8001792:	2003      	movs	r0, #3
 8001794:	e7f6      	b.n	8001784 <RTC_EnterInitMode+0x1c>

08001796 <RTC_ExitInitMode>:
 8001796:	6802      	ldr	r2, [r0, #0]
 8001798:	b538      	push	{r3, r4, r5, lr}
 800179a:	6853      	ldr	r3, [r2, #4]
 800179c:	4604      	mov	r4, r0
 800179e:	f023 0310 	bic.w	r3, r3, #16
 80017a2:	6053      	str	r3, [r2, #4]
 80017a4:	f7ff fb2e 	bl	8000e04 <HAL_GetTick>
 80017a8:	4605      	mov	r5, r0
 80017aa:	6823      	ldr	r3, [r4, #0]
 80017ac:	685b      	ldr	r3, [r3, #4]
 80017ae:	069b      	lsls	r3, r3, #26
 80017b0:	d501      	bpl.n	80017b6 <RTC_ExitInitMode+0x20>
 80017b2:	2000      	movs	r0, #0
 80017b4:	bd38      	pop	{r3, r4, r5, pc}
 80017b6:	f7ff fb25 	bl	8000e04 <HAL_GetTick>
 80017ba:	1b40      	subs	r0, r0, r5
 80017bc:	f5b0 7f7a 	cmp.w	r0, #1000	; 0x3e8
 80017c0:	d9f3      	bls.n	80017aa <RTC_ExitInitMode+0x14>
 80017c2:	2003      	movs	r0, #3
 80017c4:	e7f6      	b.n	80017b4 <RTC_ExitInitMode+0x1e>

080017c6 <HAL_RTC_WaitForSynchro>:
 80017c6:	b538      	push	{r3, r4, r5, lr}
 80017c8:	4604      	mov	r4, r0
 80017ca:	b1a8      	cbz	r0, 80017f8 <HAL_RTC_WaitForSynchro+0x32>
 80017cc:	6802      	ldr	r2, [r0, #0]
 80017ce:	6853      	ldr	r3, [r2, #4]
 80017d0:	f023 0308 	bic.w	r3, r3, #8
 80017d4:	6053      	str	r3, [r2, #4]
 80017d6:	f7ff fb15 	bl	8000e04 <HAL_GetTick>
 80017da:	4605      	mov	r5, r0
 80017dc:	6823      	ldr	r3, [r4, #0]
 80017de:	685b      	ldr	r3, [r3, #4]
 80017e0:	071b      	lsls	r3, r3, #28
 80017e2:	d501      	bpl.n	80017e8 <HAL_RTC_WaitForSynchro+0x22>
 80017e4:	2000      	movs	r0, #0
 80017e6:	bd38      	pop	{r3, r4, r5, pc}
 80017e8:	f7ff fb0c 	bl	8000e04 <HAL_GetTick>
 80017ec:	1b40      	subs	r0, r0, r5
 80017ee:	f5b0 7f7a 	cmp.w	r0, #1000	; 0x3e8
 80017f2:	d9f3      	bls.n	80017dc <HAL_RTC_WaitForSynchro+0x16>
 80017f4:	2003      	movs	r0, #3
 80017f6:	e7f6      	b.n	80017e6 <HAL_RTC_WaitForSynchro+0x20>
 80017f8:	2001      	movs	r0, #1
 80017fa:	e7f4      	b.n	80017e6 <HAL_RTC_WaitForSynchro+0x20>

080017fc <HAL_RTC_Init>:
 80017fc:	b510      	push	{r4, lr}
 80017fe:	4604      	mov	r4, r0
 8001800:	b170      	cbz	r0, 8001820 <HAL_RTC_Init+0x24>
 8001802:	7c43      	ldrb	r3, [r0, #17]
 8001804:	f003 02ff 	and.w	r2, r3, #255	; 0xff
 8001808:	b913      	cbnz	r3, 8001810 <HAL_RTC_Init+0x14>
 800180a:	7402      	strb	r2, [r0, #16]
 800180c:	f7ff f956 	bl	8000abc <HAL_RTC_MspInit>
 8001810:	2302      	movs	r3, #2
 8001812:	4620      	mov	r0, r4
 8001814:	7463      	strb	r3, [r4, #17]
 8001816:	f7ff ffd6 	bl	80017c6 <HAL_RTC_WaitForSynchro>
 800181a:	b118      	cbz	r0, 8001824 <HAL_RTC_Init+0x28>
 800181c:	2304      	movs	r3, #4
 800181e:	7463      	strb	r3, [r4, #17]
 8001820:	2001      	movs	r0, #1
 8001822:	e02f      	b.n	8001884 <HAL_RTC_Init+0x88>
 8001824:	4620      	mov	r0, r4
 8001826:	f7ff ff9f 	bl	8001768 <RTC_EnterInitMode>
 800182a:	2800      	cmp	r0, #0
 800182c:	d1f6      	bne.n	800181c <HAL_RTC_Init+0x20>
 800182e:	6822      	ldr	r2, [r4, #0]
 8001830:	68a0      	ldr	r0, [r4, #8]
 8001832:	6853      	ldr	r3, [r2, #4]
 8001834:	f023 0307 	bic.w	r3, r3, #7
 8001838:	6053      	str	r3, [r2, #4]
 800183a:	4a13      	ldr	r2, [pc, #76]	; (8001888 <HAL_RTC_Init+0x8c>)
 800183c:	b118      	cbz	r0, 8001846 <HAL_RTC_Init+0x4a>
 800183e:	6b11      	ldr	r1, [r2, #48]	; 0x30
 8001840:	f021 0101 	bic.w	r1, r1, #1
 8001844:	6311      	str	r1, [r2, #48]	; 0x30
 8001846:	6ad3      	ldr	r3, [r2, #44]	; 0x2c
 8001848:	f423 7360 	bic.w	r3, r3, #896	; 0x380
 800184c:	4303      	orrs	r3, r0
 800184e:	62d3      	str	r3, [r2, #44]	; 0x2c
 8001850:	6860      	ldr	r0, [r4, #4]
 8001852:	1c43      	adds	r3, r0, #1
 8001854:	d105      	bne.n	8001862 <HAL_RTC_Init+0x66>
 8001856:	2001      	movs	r0, #1
 8001858:	f7ff ff28 	bl	80016ac <HAL_RCCEx_GetPeriphCLKFreq>
 800185c:	2800      	cmp	r0, #0
 800185e:	d0dd      	beq.n	800181c <HAL_RTC_Init+0x20>
 8001860:	3801      	subs	r0, #1
 8001862:	6823      	ldr	r3, [r4, #0]
 8001864:	f3c0 4203 	ubfx	r2, r0, #16, #4
 8001868:	b280      	uxth	r0, r0
 800186a:	609a      	str	r2, [r3, #8]
 800186c:	60d8      	str	r0, [r3, #12]
 800186e:	4620      	mov	r0, r4
 8001870:	f7ff ff91 	bl	8001796 <RTC_ExitInitMode>
 8001874:	2301      	movs	r3, #1
 8001876:	b110      	cbz	r0, 800187e <HAL_RTC_Init+0x82>
 8001878:	2204      	movs	r2, #4
 800187a:	7462      	strb	r2, [r4, #17]
 800187c:	e7d0      	b.n	8001820 <HAL_RTC_Init+0x24>
 800187e:	7363      	strb	r3, [r4, #13]
 8001880:	81e3      	strh	r3, [r4, #14]
 8001882:	7463      	strb	r3, [r4, #17]
 8001884:	bd10      	pop	{r4, pc}
 8001886:	bf00      	nop
 8001888:	40006c00 	.word	0x40006c00

0800188c <SPI_WaitFlagStateUntilTimeout.constprop.0>:
 800188c:	e92d 41f3 	stmdb	sp!, {r0, r1, r4, r5, r6, r7, r8, lr}
 8001890:	461c      	mov	r4, r3
 8001892:	4616      	mov	r6, r2
 8001894:	460f      	mov	r7, r1
 8001896:	4605      	mov	r5, r0
 8001898:	f7ff fab4 	bl	8000e04 <HAL_GetTick>
 800189c:	4434      	add	r4, r6
 800189e:	1a24      	subs	r4, r4, r0
 80018a0:	f7ff fab0 	bl	8000e04 <HAL_GetTick>
 80018a4:	4680      	mov	r8, r0
 80018a6:	4b23      	ldr	r3, [pc, #140]	; (8001934 <SPI_WaitFlagStateUntilTimeout.constprop.0+0xa8>)
 80018a8:	681b      	ldr	r3, [r3, #0]
 80018aa:	f3c3 33cb 	ubfx	r3, r3, #15, #12
 80018ae:	4363      	muls	r3, r4
 80018b0:	682a      	ldr	r2, [r5, #0]
 80018b2:	9301      	str	r3, [sp, #4]
 80018b4:	6893      	ldr	r3, [r2, #8]
 80018b6:	ea37 0303 	bics.w	r3, r7, r3
 80018ba:	d001      	beq.n	80018c0 <SPI_WaitFlagStateUntilTimeout.constprop.0+0x34>
 80018bc:	2000      	movs	r0, #0
 80018be:	e02e      	b.n	800191e <SPI_WaitFlagStateUntilTimeout.constprop.0+0x92>
 80018c0:	1c73      	adds	r3, r6, #1
 80018c2:	d0f7      	beq.n	80018b4 <SPI_WaitFlagStateUntilTimeout.constprop.0+0x28>
 80018c4:	f7ff fa9e 	bl	8000e04 <HAL_GetTick>
 80018c8:	eba0 0008 	sub.w	r0, r0, r8
 80018cc:	42a0      	cmp	r0, r4
 80018ce:	d329      	bcc.n	8001924 <SPI_WaitFlagStateUntilTimeout.constprop.0+0x98>
 80018d0:	682b      	ldr	r3, [r5, #0]
 80018d2:	685a      	ldr	r2, [r3, #4]
 80018d4:	f022 02e0 	bic.w	r2, r2, #224	; 0xe0
 80018d8:	605a      	str	r2, [r3, #4]
 80018da:	686a      	ldr	r2, [r5, #4]
 80018dc:	f5b2 7f82 	cmp.w	r2, #260	; 0x104
 80018e0:	d10a      	bne.n	80018f8 <SPI_WaitFlagStateUntilTimeout.constprop.0+0x6c>
 80018e2:	68aa      	ldr	r2, [r5, #8]
 80018e4:	f5b2 4f00 	cmp.w	r2, #32768	; 0x8000
 80018e8:	d002      	beq.n	80018f0 <SPI_WaitFlagStateUntilTimeout.constprop.0+0x64>
 80018ea:	f5b2 6f80 	cmp.w	r2, #1024	; 0x400
 80018ee:	d103      	bne.n	80018f8 <SPI_WaitFlagStateUntilTimeout.constprop.0+0x6c>
 80018f0:	681a      	ldr	r2, [r3, #0]
 80018f2:	f022 0240 	bic.w	r2, r2, #64	; 0x40
 80018f6:	601a      	str	r2, [r3, #0]
 80018f8:	6aaa      	ldr	r2, [r5, #40]	; 0x28
 80018fa:	f5b2 5f00 	cmp.w	r2, #8192	; 0x2000
 80018fe:	d107      	bne.n	8001910 <SPI_WaitFlagStateUntilTimeout.constprop.0+0x84>
 8001900:	681a      	ldr	r2, [r3, #0]
 8001902:	f422 5200 	bic.w	r2, r2, #8192	; 0x2000
 8001906:	601a      	str	r2, [r3, #0]
 8001908:	681a      	ldr	r2, [r3, #0]
 800190a:	f442 5200 	orr.w	r2, r2, #8192	; 0x2000
 800190e:	601a      	str	r2, [r3, #0]
 8001910:	2301      	movs	r3, #1
 8001912:	f885 3051 	strb.w	r3, [r5, #81]	; 0x51
 8001916:	2300      	movs	r3, #0
 8001918:	2003      	movs	r0, #3
 800191a:	f885 3050 	strb.w	r3, [r5, #80]	; 0x50
 800191e:	b002      	add	sp, #8
 8001920:	e8bd 81f0 	ldmia.w	sp!, {r4, r5, r6, r7, r8, pc}
 8001924:	9b01      	ldr	r3, [sp, #4]
 8001926:	2b00      	cmp	r3, #0
 8001928:	9b01      	ldr	r3, [sp, #4]
 800192a:	bf08      	it	eq
 800192c:	2400      	moveq	r4, #0
 800192e:	3b01      	subs	r3, #1
 8001930:	e7be      	b.n	80018b0 <SPI_WaitFlagStateUntilTimeout.constprop.0+0x24>
 8001932:	bf00      	nop
 8001934:	20000044 	.word	0x20000044

08001938 <SPI_EndRxTxTransaction>:
 8001938:	b510      	push	{r4, lr}
 800193a:	4613      	mov	r3, r2
 800193c:	460a      	mov	r2, r1
 800193e:	2180      	movs	r1, #128	; 0x80
 8001940:	4604      	mov	r4, r0
 8001942:	f7ff ffa3 	bl	800188c <SPI_WaitFlagStateUntilTimeout.constprop.0>
 8001946:	b120      	cbz	r0, 8001952 <SPI_EndRxTxTransaction+0x1a>
 8001948:	2003      	movs	r0, #3
 800194a:	6d63      	ldr	r3, [r4, #84]	; 0x54
 800194c:	f043 0320 	orr.w	r3, r3, #32
 8001950:	6563      	str	r3, [r4, #84]	; 0x54
 8001952:	bd10      	pop	{r4, pc}

08001954 <HAL_SPI_Init>:
 8001954:	b510      	push	{r4, lr}
 8001956:	4604      	mov	r4, r0
 8001958:	2800      	cmp	r0, #0
 800195a:	d051      	beq.n	8001a00 <HAL_SPI_Init+0xac>
 800195c:	6a43      	ldr	r3, [r0, #36]	; 0x24
 800195e:	2b00      	cmp	r3, #0
 8001960:	d14a      	bne.n	80019f8 <HAL_SPI_Init+0xa4>
 8001962:	6842      	ldr	r2, [r0, #4]
 8001964:	f5b2 7f82 	cmp.w	r2, #260	; 0x104
 8001968:	d000      	beq.n	800196c <HAL_SPI_Init+0x18>
 800196a:	61c3      	str	r3, [r0, #28]
 800196c:	2300      	movs	r3, #0
 800196e:	62a3      	str	r3, [r4, #40]	; 0x28
 8001970:	f894 3051 	ldrb.w	r3, [r4, #81]	; 0x51
 8001974:	f003 02ff 	and.w	r2, r3, #255	; 0xff
 8001978:	b923      	cbnz	r3, 8001984 <HAL_SPI_Init+0x30>
 800197a:	4620      	mov	r0, r4
 800197c:	f884 2050 	strb.w	r2, [r4, #80]	; 0x50
 8001980:	f7ff f8ba 	bl	8000af8 <HAL_SPI_MspInit>
 8001984:	2302      	movs	r3, #2
 8001986:	6822      	ldr	r2, [r4, #0]
 8001988:	f884 3051 	strb.w	r3, [r4, #81]	; 0x51
 800198c:	6813      	ldr	r3, [r2, #0]
 800198e:	68a0      	ldr	r0, [r4, #8]
 8001990:	f023 0340 	bic.w	r3, r3, #64	; 0x40
 8001994:	6013      	str	r3, [r2, #0]
 8001996:	6863      	ldr	r3, [r4, #4]
 8001998:	f400 4004 	and.w	r0, r0, #33792	; 0x8400
 800199c:	f403 7382 	and.w	r3, r3, #260	; 0x104
 80019a0:	4303      	orrs	r3, r0
 80019a2:	68e0      	ldr	r0, [r4, #12]
 80019a4:	69a1      	ldr	r1, [r4, #24]
 80019a6:	f400 6000 	and.w	r0, r0, #2048	; 0x800
 80019aa:	4303      	orrs	r3, r0
 80019ac:	6920      	ldr	r0, [r4, #16]
 80019ae:	f000 0002 	and.w	r0, r0, #2
 80019b2:	4303      	orrs	r3, r0
 80019b4:	6960      	ldr	r0, [r4, #20]
 80019b6:	f000 0001 	and.w	r0, r0, #1
 80019ba:	4303      	orrs	r3, r0
 80019bc:	f401 7000 	and.w	r0, r1, #512	; 0x200
 80019c0:	4303      	orrs	r3, r0
 80019c2:	69e0      	ldr	r0, [r4, #28]
 80019c4:	0c09      	lsrs	r1, r1, #16
 80019c6:	f000 0038 	and.w	r0, r0, #56	; 0x38
 80019ca:	4303      	orrs	r3, r0
 80019cc:	6a20      	ldr	r0, [r4, #32]
 80019ce:	f001 0104 	and.w	r1, r1, #4
 80019d2:	f000 0080 	and.w	r0, r0, #128	; 0x80
 80019d6:	4303      	orrs	r3, r0
 80019d8:	6aa0      	ldr	r0, [r4, #40]	; 0x28
 80019da:	f400 5000 	and.w	r0, r0, #8192	; 0x2000
 80019de:	4303      	orrs	r3, r0
 80019e0:	6013      	str	r3, [r2, #0]
 80019e2:	6051      	str	r1, [r2, #4]
 80019e4:	69d3      	ldr	r3, [r2, #28]
 80019e6:	2000      	movs	r0, #0
 80019e8:	f423 6300 	bic.w	r3, r3, #2048	; 0x800
 80019ec:	61d3      	str	r3, [r2, #28]
 80019ee:	2301      	movs	r3, #1
 80019f0:	6560      	str	r0, [r4, #84]	; 0x54
 80019f2:	f884 3051 	strb.w	r3, [r4, #81]	; 0x51
 80019f6:	bd10      	pop	{r4, pc}
 80019f8:	2300      	movs	r3, #0
 80019fa:	e9c0 3304 	strd	r3, r3, [r0, #16]
 80019fe:	e7b5      	b.n	800196c <HAL_SPI_Init+0x18>
 8001a00:	2001      	movs	r0, #1
 8001a02:	e7f8      	b.n	80019f6 <HAL_SPI_Init+0xa2>

08001a04 <HAL_SPI_Transmit>:
 8001a04:	e92d 43f7 	stmdb	sp!, {r0, r1, r2, r4, r5, r6, r7, r8, r9, lr}
 8001a08:	461e      	mov	r6, r3
 8001a0a:	f890 3050 	ldrb.w	r3, [r0, #80]	; 0x50
 8001a0e:	4604      	mov	r4, r0
 8001a10:	2b01      	cmp	r3, #1
 8001a12:	460d      	mov	r5, r1
 8001a14:	4617      	mov	r7, r2
 8001a16:	f000 80a6 	beq.w	8001b66 <HAL_SPI_Transmit+0x162>
 8001a1a:	2301      	movs	r3, #1
 8001a1c:	f880 3050 	strb.w	r3, [r0, #80]	; 0x50
 8001a20:	f7ff f9f0 	bl	8000e04 <HAL_GetTick>
 8001a24:	f894 3051 	ldrb.w	r3, [r4, #81]	; 0x51
 8001a28:	4681      	mov	r9, r0
 8001a2a:	2b01      	cmp	r3, #1
 8001a2c:	fa5f f883 	uxtb.w	r8, r3
 8001a30:	f040 8096 	bne.w	8001b60 <HAL_SPI_Transmit+0x15c>
 8001a34:	2d00      	cmp	r5, #0
 8001a36:	d063      	beq.n	8001b00 <HAL_SPI_Transmit+0xfc>
 8001a38:	2f00      	cmp	r7, #0
 8001a3a:	d061      	beq.n	8001b00 <HAL_SPI_Transmit+0xfc>
 8001a3c:	2303      	movs	r3, #3
 8001a3e:	f884 3051 	strb.w	r3, [r4, #81]	; 0x51
 8001a42:	2300      	movs	r3, #0
 8001a44:	68a2      	ldr	r2, [r4, #8]
 8001a46:	6563      	str	r3, [r4, #84]	; 0x54
 8001a48:	f5b2 4f00 	cmp.w	r2, #32768	; 0x8000
 8001a4c:	e9c4 3310 	strd	r3, r3, [r4, #64]	; 0x40
 8001a50:	86e7      	strh	r7, [r4, #54]	; 0x36
 8001a52:	63a3      	str	r3, [r4, #56]	; 0x38
 8001a54:	87a3      	strh	r3, [r4, #60]	; 0x3c
 8001a56:	87e3      	strh	r3, [r4, #62]	; 0x3e
 8001a58:	6325      	str	r5, [r4, #48]	; 0x30
 8001a5a:	6823      	ldr	r3, [r4, #0]
 8001a5c:	86a7      	strh	r7, [r4, #52]	; 0x34
 8001a5e:	d107      	bne.n	8001a70 <HAL_SPI_Transmit+0x6c>
 8001a60:	681a      	ldr	r2, [r3, #0]
 8001a62:	f022 0240 	bic.w	r2, r2, #64	; 0x40
 8001a66:	601a      	str	r2, [r3, #0]
 8001a68:	681a      	ldr	r2, [r3, #0]
 8001a6a:	f442 4280 	orr.w	r2, r2, #16384	; 0x4000
 8001a6e:	601a      	str	r2, [r3, #0]
 8001a70:	681a      	ldr	r2, [r3, #0]
 8001a72:	6861      	ldr	r1, [r4, #4]
 8001a74:	0652      	lsls	r2, r2, #25
 8001a76:	bf5e      	ittt	pl
 8001a78:	681a      	ldrpl	r2, [r3, #0]
 8001a7a:	f042 0240 	orrpl.w	r2, r2, #64	; 0x40
 8001a7e:	601a      	strpl	r2, [r3, #0]
 8001a80:	68e2      	ldr	r2, [r4, #12]
 8001a82:	f5b2 6f00 	cmp.w	r2, #2048	; 0x800
 8001a86:	d145      	bne.n	8001b14 <HAL_SPI_Transmit+0x110>
 8001a88:	b109      	cbz	r1, 8001a8e <HAL_SPI_Transmit+0x8a>
 8001a8a:	2f01      	cmp	r7, #1
 8001a8c:	d107      	bne.n	8001a9e <HAL_SPI_Transmit+0x9a>
 8001a8e:	f835 2b02 	ldrh.w	r2, [r5], #2
 8001a92:	60da      	str	r2, [r3, #12]
 8001a94:	6325      	str	r5, [r4, #48]	; 0x30
 8001a96:	8ee3      	ldrh	r3, [r4, #54]	; 0x36
 8001a98:	3b01      	subs	r3, #1
 8001a9a:	b29b      	uxth	r3, r3
 8001a9c:	86e3      	strh	r3, [r4, #54]	; 0x36
 8001a9e:	8ee3      	ldrh	r3, [r4, #54]	; 0x36
 8001aa0:	b29b      	uxth	r3, r3
 8001aa2:	b9b3      	cbnz	r3, 8001ad2 <HAL_SPI_Transmit+0xce>
 8001aa4:	464a      	mov	r2, r9
 8001aa6:	4631      	mov	r1, r6
 8001aa8:	4620      	mov	r0, r4
 8001aaa:	f7ff ff45 	bl	8001938 <SPI_EndRxTxTransaction>
 8001aae:	2800      	cmp	r0, #0
 8001ab0:	d153      	bne.n	8001b5a <HAL_SPI_Transmit+0x156>
 8001ab2:	68a3      	ldr	r3, [r4, #8]
 8001ab4:	b933      	cbnz	r3, 8001ac4 <HAL_SPI_Transmit+0xc0>
 8001ab6:	9301      	str	r3, [sp, #4]
 8001ab8:	6823      	ldr	r3, [r4, #0]
 8001aba:	68da      	ldr	r2, [r3, #12]
 8001abc:	9201      	str	r2, [sp, #4]
 8001abe:	689b      	ldr	r3, [r3, #8]
 8001ac0:	9301      	str	r3, [sp, #4]
 8001ac2:	9b01      	ldr	r3, [sp, #4]
 8001ac4:	6d63      	ldr	r3, [r4, #84]	; 0x54
 8001ac6:	b9db      	cbnz	r3, 8001b00 <HAL_SPI_Transmit+0xfc>
 8001ac8:	2201      	movs	r2, #1
 8001aca:	4698      	mov	r8, r3
 8001acc:	f884 2051 	strb.w	r2, [r4, #81]	; 0x51
 8001ad0:	e016      	b.n	8001b00 <HAL_SPI_Transmit+0xfc>
 8001ad2:	6822      	ldr	r2, [r4, #0]
 8001ad4:	6893      	ldr	r3, [r2, #8]
 8001ad6:	0798      	lsls	r0, r3, #30
 8001ad8:	d505      	bpl.n	8001ae6 <HAL_SPI_Transmit+0xe2>
 8001ada:	6b23      	ldr	r3, [r4, #48]	; 0x30
 8001adc:	f833 1b02 	ldrh.w	r1, [r3], #2
 8001ae0:	60d1      	str	r1, [r2, #12]
 8001ae2:	6323      	str	r3, [r4, #48]	; 0x30
 8001ae4:	e7d7      	b.n	8001a96 <HAL_SPI_Transmit+0x92>
 8001ae6:	f7ff f98d 	bl	8000e04 <HAL_GetTick>
 8001aea:	eba0 0009 	sub.w	r0, r0, r9
 8001aee:	42b0      	cmp	r0, r6
 8001af0:	d30d      	bcc.n	8001b0e <HAL_SPI_Transmit+0x10a>
 8001af2:	1c71      	adds	r1, r6, #1
 8001af4:	d0d3      	beq.n	8001a9e <HAL_SPI_Transmit+0x9a>
 8001af6:	2301      	movs	r3, #1
 8001af8:	f04f 0803 	mov.w	r8, #3
 8001afc:	f884 3051 	strb.w	r3, [r4, #81]	; 0x51
 8001b00:	2300      	movs	r3, #0
 8001b02:	f884 3050 	strb.w	r3, [r4, #80]	; 0x50
 8001b06:	4640      	mov	r0, r8
 8001b08:	b003      	add	sp, #12
 8001b0a:	e8bd 83f0 	ldmia.w	sp!, {r4, r5, r6, r7, r8, r9, pc}
 8001b0e:	2e00      	cmp	r6, #0
 8001b10:	d1c5      	bne.n	8001a9e <HAL_SPI_Transmit+0x9a>
 8001b12:	e7f0      	b.n	8001af6 <HAL_SPI_Transmit+0xf2>
 8001b14:	b109      	cbz	r1, 8001b1a <HAL_SPI_Transmit+0x116>
 8001b16:	2f01      	cmp	r7, #1
 8001b18:	d108      	bne.n	8001b2c <HAL_SPI_Transmit+0x128>
 8001b1a:	782a      	ldrb	r2, [r5, #0]
 8001b1c:	731a      	strb	r2, [r3, #12]
 8001b1e:	6b23      	ldr	r3, [r4, #48]	; 0x30
 8001b20:	3301      	adds	r3, #1
 8001b22:	6323      	str	r3, [r4, #48]	; 0x30
 8001b24:	8ee3      	ldrh	r3, [r4, #54]	; 0x36
 8001b26:	3b01      	subs	r3, #1
 8001b28:	b29b      	uxth	r3, r3
 8001b2a:	86e3      	strh	r3, [r4, #54]	; 0x36
 8001b2c:	8ee3      	ldrh	r3, [r4, #54]	; 0x36
 8001b2e:	b29b      	uxth	r3, r3
 8001b30:	2b00      	cmp	r3, #0
 8001b32:	d0b7      	beq.n	8001aa4 <HAL_SPI_Transmit+0xa0>
 8001b34:	6823      	ldr	r3, [r4, #0]
 8001b36:	689a      	ldr	r2, [r3, #8]
 8001b38:	0792      	lsls	r2, r2, #30
 8001b3a:	d502      	bpl.n	8001b42 <HAL_SPI_Transmit+0x13e>
 8001b3c:	6b22      	ldr	r2, [r4, #48]	; 0x30
 8001b3e:	7812      	ldrb	r2, [r2, #0]
 8001b40:	e7ec      	b.n	8001b1c <HAL_SPI_Transmit+0x118>
 8001b42:	f7ff f95f 	bl	8000e04 <HAL_GetTick>
 8001b46:	eba0 0009 	sub.w	r0, r0, r9
 8001b4a:	42b0      	cmp	r0, r6
 8001b4c:	d302      	bcc.n	8001b54 <HAL_SPI_Transmit+0x150>
 8001b4e:	1c73      	adds	r3, r6, #1
 8001b50:	d0ec      	beq.n	8001b2c <HAL_SPI_Transmit+0x128>
 8001b52:	e7d0      	b.n	8001af6 <HAL_SPI_Transmit+0xf2>
 8001b54:	2e00      	cmp	r6, #0
 8001b56:	d1e9      	bne.n	8001b2c <HAL_SPI_Transmit+0x128>
 8001b58:	e7cd      	b.n	8001af6 <HAL_SPI_Transmit+0xf2>
 8001b5a:	2320      	movs	r3, #32
 8001b5c:	6563      	str	r3, [r4, #84]	; 0x54
 8001b5e:	e7a8      	b.n	8001ab2 <HAL_SPI_Transmit+0xae>
 8001b60:	f04f 0802 	mov.w	r8, #2
 8001b64:	e7cc      	b.n	8001b00 <HAL_SPI_Transmit+0xfc>
 8001b66:	f04f 0802 	mov.w	r8, #2
 8001b6a:	e7cc      	b.n	8001b06 <HAL_SPI_Transmit+0x102>

08001b6c <UART_SetConfig>:
 8001b6c:	b510      	push	{r4, lr}
 8001b6e:	4604      	mov	r4, r0
 8001b70:	6803      	ldr	r3, [r0, #0]
 8001b72:	68c1      	ldr	r1, [r0, #12]
 8001b74:	691a      	ldr	r2, [r3, #16]
 8001b76:	f422 5240 	bic.w	r2, r2, #12288	; 0x3000
 8001b7a:	430a      	orrs	r2, r1
 8001b7c:	611a      	str	r2, [r3, #16]
 8001b7e:	6882      	ldr	r2, [r0, #8]
 8001b80:	6900      	ldr	r0, [r0, #16]
 8001b82:	68d9      	ldr	r1, [r3, #12]
 8001b84:	4302      	orrs	r2, r0
 8001b86:	6960      	ldr	r0, [r4, #20]
 8001b88:	f421 51b0 	bic.w	r1, r1, #5632	; 0x1600
 8001b8c:	f021 010c 	bic.w	r1, r1, #12
 8001b90:	4302      	orrs	r2, r0
 8001b92:	430a      	orrs	r2, r1
 8001b94:	60da      	str	r2, [r3, #12]
 8001b96:	695a      	ldr	r2, [r3, #20]
 8001b98:	69a1      	ldr	r1, [r4, #24]
 8001b9a:	f422 7240 	bic.w	r2, r2, #768	; 0x300
 8001b9e:	430a      	orrs	r2, r1
 8001ba0:	615a      	str	r2, [r3, #20]
 8001ba2:	4a0e      	ldr	r2, [pc, #56]	; (8001bdc <UART_SetConfig+0x70>)
 8001ba4:	4293      	cmp	r3, r2
 8001ba6:	d115      	bne.n	8001bd4 <UART_SetConfig+0x68>
 8001ba8:	f7ff fcf6 	bl	8001598 <HAL_RCC_GetPCLK2Freq>
 8001bac:	2319      	movs	r3, #25
 8001bae:	4343      	muls	r3, r0
 8001bb0:	6862      	ldr	r2, [r4, #4]
 8001bb2:	6820      	ldr	r0, [r4, #0]
 8001bb4:	0092      	lsls	r2, r2, #2
 8001bb6:	fbb3 f3f2 	udiv	r3, r3, r2
 8001bba:	2264      	movs	r2, #100	; 0x64
 8001bbc:	fbb3 f1f2 	udiv	r1, r3, r2
 8001bc0:	fb02 3311 	mls	r3, r2, r1, r3
 8001bc4:	011b      	lsls	r3, r3, #4
 8001bc6:	3332      	adds	r3, #50	; 0x32
 8001bc8:	fbb3 f3f2 	udiv	r3, r3, r2
 8001bcc:	eb03 1301 	add.w	r3, r3, r1, lsl #4
 8001bd0:	6083      	str	r3, [r0, #8]
 8001bd2:	bd10      	pop	{r4, pc}
 8001bd4:	f7ff fcd0 	bl	8001578 <HAL_RCC_GetPCLK1Freq>
 8001bd8:	e7e8      	b.n	8001bac <UART_SetConfig+0x40>
 8001bda:	bf00      	nop
 8001bdc:	40013800 	.word	0x40013800

08001be0 <UART_WaitOnFlagUntilTimeout.constprop.0>:
 8001be0:	b5f8      	push	{r3, r4, r5, r6, r7, lr}
 8001be2:	4604      	mov	r4, r0
 8001be4:	460e      	mov	r6, r1
 8001be6:	4617      	mov	r7, r2
 8001be8:	461d      	mov	r5, r3
 8001bea:	6822      	ldr	r2, [r4, #0]
 8001bec:	6813      	ldr	r3, [r2, #0]
 8001bee:	ea36 0303 	bics.w	r3, r6, r3
 8001bf2:	d101      	bne.n	8001bf8 <UART_WaitOnFlagUntilTimeout.constprop.0+0x18>
 8001bf4:	2000      	movs	r0, #0
 8001bf6:	e028      	b.n	8001c4a <UART_WaitOnFlagUntilTimeout.constprop.0+0x6a>
 8001bf8:	1c6b      	adds	r3, r5, #1
 8001bfa:	d0f7      	beq.n	8001bec <UART_WaitOnFlagUntilTimeout.constprop.0+0xc>
 8001bfc:	b125      	cbz	r5, 8001c08 <UART_WaitOnFlagUntilTimeout.constprop.0+0x28>
 8001bfe:	f7ff f901 	bl	8000e04 <HAL_GetTick>
 8001c02:	1bc0      	subs	r0, r0, r7
 8001c04:	4285      	cmp	r5, r0
 8001c06:	d2f0      	bcs.n	8001bea <UART_WaitOnFlagUntilTimeout.constprop.0+0xa>
 8001c08:	6822      	ldr	r2, [r4, #0]
 8001c0a:	f102 030c 	add.w	r3, r2, #12
 8001c0e:	e853 3f00 	ldrex	r3, [r3]
 8001c12:	f423 73d0 	bic.w	r3, r3, #416	; 0x1a0
 8001c16:	320c      	adds	r2, #12
 8001c18:	e842 3000 	strex	r0, r3, [r2]
 8001c1c:	6821      	ldr	r1, [r4, #0]
 8001c1e:	2800      	cmp	r0, #0
 8001c20:	d1f2      	bne.n	8001c08 <UART_WaitOnFlagUntilTimeout.constprop.0+0x28>
 8001c22:	f101 0314 	add.w	r3, r1, #20
 8001c26:	e853 3f00 	ldrex	r3, [r3]
 8001c2a:	f023 0301 	bic.w	r3, r3, #1
 8001c2e:	f101 0014 	add.w	r0, r1, #20
 8001c32:	e840 3200 	strex	r2, r3, [r0]
 8001c36:	2a00      	cmp	r2, #0
 8001c38:	d1f3      	bne.n	8001c22 <UART_WaitOnFlagUntilTimeout.constprop.0+0x42>
 8001c3a:	2320      	movs	r3, #32
 8001c3c:	2003      	movs	r0, #3
 8001c3e:	f884 3041 	strb.w	r3, [r4, #65]	; 0x41
 8001c42:	f884 2040 	strb.w	r2, [r4, #64]	; 0x40
 8001c46:	f884 3042 	strb.w	r3, [r4, #66]	; 0x42
 8001c4a:	bdf8      	pop	{r3, r4, r5, r6, r7, pc}

08001c4c <HAL_UART_Init>:
 8001c4c:	b510      	push	{r4, lr}
 8001c4e:	4604      	mov	r4, r0
 8001c50:	b348      	cbz	r0, 8001ca6 <HAL_UART_Init+0x5a>
 8001c52:	f890 3041 	ldrb.w	r3, [r0, #65]	; 0x41
 8001c56:	f003 02ff 	and.w	r2, r3, #255	; 0xff
 8001c5a:	b91b      	cbnz	r3, 8001c64 <HAL_UART_Init+0x18>
 8001c5c:	f880 2040 	strb.w	r2, [r0, #64]	; 0x40
 8001c60:	f7fe ff7a 	bl	8000b58 <HAL_UART_MspInit>
 8001c64:	2324      	movs	r3, #36	; 0x24
 8001c66:	6822      	ldr	r2, [r4, #0]
 8001c68:	f884 3041 	strb.w	r3, [r4, #65]	; 0x41
 8001c6c:	68d3      	ldr	r3, [r2, #12]
 8001c6e:	4620      	mov	r0, r4
 8001c70:	f423 5300 	bic.w	r3, r3, #8192	; 0x2000
 8001c74:	60d3      	str	r3, [r2, #12]
 8001c76:	f7ff ff79 	bl	8001b6c <UART_SetConfig>
 8001c7a:	6823      	ldr	r3, [r4, #0]
 8001c7c:	2000      	movs	r0, #0
 8001c7e:	691a      	ldr	r2, [r3, #16]
 8001c80:	f422 4290 	bic.w	r2, r2, #18432	; 0x4800
 8001c84:	611a      	str	r2, [r3, #16]
 8001c86:	695a      	ldr	r2, [r3, #20]
 8001c88:	f022 022a 	bic.w	r2, r2, #42	; 0x2a
 8001c8c:	615a      	str	r2, [r3, #20]
 8001c8e:	68da      	ldr	r2, [r3, #12]
 8001c90:	f442 5200 	orr.w	r2, r2, #8192	; 0x2000
 8001c94:	60da      	str	r2, [r3, #12]
 8001c96:	2320      	movs	r3, #32
 8001c98:	6460      	str	r0, [r4, #68]	; 0x44
 8001c9a:	f884 3041 	strb.w	r3, [r4, #65]	; 0x41
 8001c9e:	f884 3042 	strb.w	r3, [r4, #66]	; 0x42
 8001ca2:	6360      	str	r0, [r4, #52]	; 0x34
 8001ca4:	bd10      	pop	{r4, pc}
 8001ca6:	2001      	movs	r0, #1
 8001ca8:	e7fc      	b.n	8001ca4 <HAL_UART_Init+0x58>

08001caa <HAL_UART_Transmit>:
 8001caa:	e92d 43f8 	stmdb	sp!, {r3, r4, r5, r6, r7, r8, r9, lr}
 8001cae:	4699      	mov	r9, r3
 8001cb0:	f890 3041 	ldrb.w	r3, [r0, #65]	; 0x41
 8001cb4:	4604      	mov	r4, r0
 8001cb6:	2b20      	cmp	r3, #32
 8001cb8:	460e      	mov	r6, r1
 8001cba:	4617      	mov	r7, r2
 8001cbc:	d13c      	bne.n	8001d38 <HAL_UART_Transmit+0x8e>
 8001cbe:	2900      	cmp	r1, #0
 8001cc0:	d03c      	beq.n	8001d3c <HAL_UART_Transmit+0x92>
 8001cc2:	2a00      	cmp	r2, #0
 8001cc4:	d03a      	beq.n	8001d3c <HAL_UART_Transmit+0x92>
 8001cc6:	2321      	movs	r3, #33	; 0x21
 8001cc8:	2500      	movs	r5, #0
 8001cca:	6445      	str	r5, [r0, #68]	; 0x44
 8001ccc:	f880 3041 	strb.w	r3, [r0, #65]	; 0x41
 8001cd0:	f7ff f898 	bl	8000e04 <HAL_GetTick>
 8001cd4:	68a3      	ldr	r3, [r4, #8]
 8001cd6:	4680      	mov	r8, r0
 8001cd8:	f5b3 5f80 	cmp.w	r3, #4096	; 0x1000
 8001cdc:	84a7      	strh	r7, [r4, #36]	; 0x24
 8001cde:	84e7      	strh	r7, [r4, #38]	; 0x26
 8001ce0:	d103      	bne.n	8001cea <HAL_UART_Transmit+0x40>
 8001ce2:	6923      	ldr	r3, [r4, #16]
 8001ce4:	b90b      	cbnz	r3, 8001cea <HAL_UART_Transmit+0x40>
 8001ce6:	4635      	mov	r5, r6
 8001ce8:	461e      	mov	r6, r3
 8001cea:	8ce3      	ldrh	r3, [r4, #38]	; 0x26
 8001cec:	b29b      	uxth	r3, r3
 8001cee:	b953      	cbnz	r3, 8001d06 <HAL_UART_Transmit+0x5c>
 8001cf0:	464b      	mov	r3, r9
 8001cf2:	4642      	mov	r2, r8
 8001cf4:	2140      	movs	r1, #64	; 0x40
 8001cf6:	4620      	mov	r0, r4
 8001cf8:	f7ff ff72 	bl	8001be0 <UART_WaitOnFlagUntilTimeout.constprop.0>
 8001cfc:	b950      	cbnz	r0, 8001d14 <HAL_UART_Transmit+0x6a>
 8001cfe:	2320      	movs	r3, #32
 8001d00:	f884 3041 	strb.w	r3, [r4, #65]	; 0x41
 8001d04:	e007      	b.n	8001d16 <HAL_UART_Transmit+0x6c>
 8001d06:	464b      	mov	r3, r9
 8001d08:	4642      	mov	r2, r8
 8001d0a:	2180      	movs	r1, #128	; 0x80
 8001d0c:	4620      	mov	r0, r4
 8001d0e:	f7ff ff67 	bl	8001be0 <UART_WaitOnFlagUntilTimeout.constprop.0>
 8001d12:	b110      	cbz	r0, 8001d1a <HAL_UART_Transmit+0x70>
 8001d14:	2003      	movs	r0, #3
 8001d16:	e8bd 83f8 	ldmia.w	sp!, {r3, r4, r5, r6, r7, r8, r9, pc}
 8001d1a:	6822      	ldr	r2, [r4, #0]
 8001d1c:	b94e      	cbnz	r6, 8001d32 <HAL_UART_Transmit+0x88>
 8001d1e:	f835 3b02 	ldrh.w	r3, [r5], #2
 8001d22:	f3c3 0308 	ubfx	r3, r3, #0, #9
 8001d26:	6053      	str	r3, [r2, #4]
 8001d28:	8ce1      	ldrh	r1, [r4, #38]	; 0x26
 8001d2a:	3901      	subs	r1, #1
 8001d2c:	b289      	uxth	r1, r1
 8001d2e:	84e1      	strh	r1, [r4, #38]	; 0x26
 8001d30:	e7db      	b.n	8001cea <HAL_UART_Transmit+0x40>
 8001d32:	f816 3b01 	ldrb.w	r3, [r6], #1
 8001d36:	e7f6      	b.n	8001d26 <HAL_UART_Transmit+0x7c>
 8001d38:	2002      	movs	r0, #2
 8001d3a:	e7ec      	b.n	8001d16 <HAL_UART_Transmit+0x6c>
 8001d3c:	2001      	movs	r0, #1
 8001d3e:	e7ea      	b.n	8001d16 <HAL_UART_Transmit+0x6c>

08001d40 <__errno>:
 8001d40:	4b01      	ldr	r3, [pc, #4]	; (8001d48 <__errno+0x8>)
 8001d42:	6818      	ldr	r0, [r3, #0]
 8001d44:	4770      	bx	lr
 8001d46:	bf00      	nop
 8001d48:	20000050 	.word	0x20000050

08001d4c <__libc_init_array>:
 8001d4c:	b570      	push	{r4, r5, r6, lr}
 8001d4e:	2600      	movs	r6, #0
 8001d50:	4d0c      	ldr	r5, [pc, #48]	; (8001d84 <__libc_init_array+0x38>)
 8001d52:	4c0d      	ldr	r4, [pc, #52]	; (8001d88 <__libc_init_array+0x3c>)
 8001d54:	1b64      	subs	r4, r4, r5
 8001d56:	10a4      	asrs	r4, r4, #2
 8001d58:	42a6      	cmp	r6, r4
 8001d5a:	d109      	bne.n	8001d70 <__libc_init_array+0x24>
 8001d5c:	f001 fa6a 	bl	8003234 <_init>
 8001d60:	2600      	movs	r6, #0
 8001d62:	4d0a      	ldr	r5, [pc, #40]	; (8001d8c <__libc_init_array+0x40>)
 8001d64:	4c0a      	ldr	r4, [pc, #40]	; (8001d90 <__libc_init_array+0x44>)
 8001d66:	1b64      	subs	r4, r4, r5
 8001d68:	10a4      	asrs	r4, r4, #2
 8001d6a:	42a6      	cmp	r6, r4
 8001d6c:	d105      	bne.n	8001d7a <__libc_init_array+0x2e>
 8001d6e:	bd70      	pop	{r4, r5, r6, pc}
 8001d70:	f855 3b04 	ldr.w	r3, [r5], #4
 8001d74:	4798      	blx	r3
 8001d76:	3601      	adds	r6, #1
 8001d78:	e7ee      	b.n	8001d58 <__libc_init_array+0xc>
 8001d7a:	f855 3b04 	ldr.w	r3, [r5], #4
 8001d7e:	4798      	blx	r3
 8001d80:	3601      	adds	r6, #1
 8001d82:	e7f2      	b.n	8001d6a <__libc_init_array+0x1e>
 8001d84:	08003c50 	.word	0x08003c50
 8001d88:	08003c50 	.word	0x08003c50
 8001d8c:	08003c50 	.word	0x08003c50
 8001d90:	08003c54 	.word	0x08003c54

08001d94 <memset>:
 8001d94:	4603      	mov	r3, r0
 8001d96:	4402      	add	r2, r0
 8001d98:	4293      	cmp	r3, r2
 8001d9a:	d100      	bne.n	8001d9e <memset+0xa>
 8001d9c:	4770      	bx	lr
 8001d9e:	f803 1b01 	strb.w	r1, [r3], #1
 8001da2:	e7f9      	b.n	8001d98 <memset+0x4>

08001da4 <srand>:
 8001da4:	b538      	push	{r3, r4, r5, lr}
 8001da6:	4b10      	ldr	r3, [pc, #64]	; (8001de8 <srand+0x44>)
 8001da8:	4604      	mov	r4, r0
 8001daa:	681d      	ldr	r5, [r3, #0]
 8001dac:	6bab      	ldr	r3, [r5, #56]	; 0x38
 8001dae:	b9b3      	cbnz	r3, 8001dde <srand+0x3a>
 8001db0:	2018      	movs	r0, #24
 8001db2:	f000 f8b3 	bl	8001f1c <malloc>
 8001db6:	4602      	mov	r2, r0
 8001db8:	63a8      	str	r0, [r5, #56]	; 0x38
 8001dba:	b920      	cbnz	r0, 8001dc6 <srand+0x22>
 8001dbc:	2142      	movs	r1, #66	; 0x42
 8001dbe:	4b0b      	ldr	r3, [pc, #44]	; (8001dec <srand+0x48>)
 8001dc0:	480b      	ldr	r0, [pc, #44]	; (8001df0 <srand+0x4c>)
 8001dc2:	f000 f87b 	bl	8001ebc <__assert_func>
 8001dc6:	490b      	ldr	r1, [pc, #44]	; (8001df4 <srand+0x50>)
 8001dc8:	4b0b      	ldr	r3, [pc, #44]	; (8001df8 <srand+0x54>)
 8001dca:	e9c0 1300 	strd	r1, r3, [r0]
 8001dce:	4b0b      	ldr	r3, [pc, #44]	; (8001dfc <srand+0x58>)
 8001dd0:	2100      	movs	r1, #0
 8001dd2:	6083      	str	r3, [r0, #8]
 8001dd4:	230b      	movs	r3, #11
 8001dd6:	8183      	strh	r3, [r0, #12]
 8001dd8:	2001      	movs	r0, #1
 8001dda:	e9c2 0104 	strd	r0, r1, [r2, #16]
 8001dde:	2200      	movs	r2, #0
 8001de0:	6bab      	ldr	r3, [r5, #56]	; 0x38
 8001de2:	611c      	str	r4, [r3, #16]
 8001de4:	615a      	str	r2, [r3, #20]
 8001de6:	bd38      	pop	{r3, r4, r5, pc}
 8001de8:	20000050 	.word	0x20000050
 8001dec:	08003b0c 	.word	0x08003b0c
 8001df0:	08003b23 	.word	0x08003b23
 8001df4:	abcd330e 	.word	0xabcd330e
 8001df8:	e66d1234 	.word	0xe66d1234
 8001dfc:	0005deec 	.word	0x0005deec

08001e00 <rand>:
 8001e00:	4b16      	ldr	r3, [pc, #88]	; (8001e5c <rand+0x5c>)
 8001e02:	b510      	push	{r4, lr}
 8001e04:	681c      	ldr	r4, [r3, #0]
 8001e06:	6ba3      	ldr	r3, [r4, #56]	; 0x38
 8001e08:	b9b3      	cbnz	r3, 8001e38 <rand+0x38>
 8001e0a:	2018      	movs	r0, #24
 8001e0c:	f000 f886 	bl	8001f1c <malloc>
 8001e10:	4602      	mov	r2, r0
 8001e12:	63a0      	str	r0, [r4, #56]	; 0x38
 8001e14:	b920      	cbnz	r0, 8001e20 <rand+0x20>
 8001e16:	214e      	movs	r1, #78	; 0x4e
 8001e18:	4b11      	ldr	r3, [pc, #68]	; (8001e60 <rand+0x60>)
 8001e1a:	4812      	ldr	r0, [pc, #72]	; (8001e64 <rand+0x64>)
 8001e1c:	f000 f84e 	bl	8001ebc <__assert_func>
 8001e20:	4911      	ldr	r1, [pc, #68]	; (8001e68 <rand+0x68>)
 8001e22:	4b12      	ldr	r3, [pc, #72]	; (8001e6c <rand+0x6c>)
 8001e24:	e9c0 1300 	strd	r1, r3, [r0]
 8001e28:	4b11      	ldr	r3, [pc, #68]	; (8001e70 <rand+0x70>)
 8001e2a:	2100      	movs	r1, #0
 8001e2c:	6083      	str	r3, [r0, #8]
 8001e2e:	230b      	movs	r3, #11
 8001e30:	8183      	strh	r3, [r0, #12]
 8001e32:	2001      	movs	r0, #1
 8001e34:	e9c2 0104 	strd	r0, r1, [r2, #16]
 8001e38:	6ba4      	ldr	r4, [r4, #56]	; 0x38
 8001e3a:	4a0e      	ldr	r2, [pc, #56]	; (8001e74 <rand+0x74>)
 8001e3c:	6920      	ldr	r0, [r4, #16]
 8001e3e:	6963      	ldr	r3, [r4, #20]
 8001e40:	4342      	muls	r2, r0
 8001e42:	490d      	ldr	r1, [pc, #52]	; (8001e78 <rand+0x78>)
 8001e44:	fb01 2203 	mla	r2, r1, r3, r2
 8001e48:	fba0 0101 	umull	r0, r1, r0, r1
 8001e4c:	1c43      	adds	r3, r0, #1
 8001e4e:	eb42 0001 	adc.w	r0, r2, r1
 8001e52:	e9c4 3004 	strd	r3, r0, [r4, #16]
 8001e56:	f020 4000 	bic.w	r0, r0, #2147483648	; 0x80000000
 8001e5a:	bd10      	pop	{r4, pc}
 8001e5c:	20000050 	.word	0x20000050
 8001e60:	08003b0c 	.word	0x08003b0c
 8001e64:	08003b23 	.word	0x08003b23
 8001e68:	abcd330e 	.word	0xabcd330e
 8001e6c:	e66d1234 	.word	0xe66d1234
 8001e70:	0005deec 	.word	0x0005deec
 8001e74:	5851f42d 	.word	0x5851f42d
 8001e78:	4c957f2d 	.word	0x4c957f2d

08001e7c <siprintf>:
 8001e7c:	b40e      	push	{r1, r2, r3}
 8001e7e:	f06f 4100 	mvn.w	r1, #2147483648	; 0x80000000
 8001e82:	b500      	push	{lr}
 8001e84:	b09c      	sub	sp, #112	; 0x70
 8001e86:	ab1d      	add	r3, sp, #116	; 0x74
 8001e88:	9002      	str	r0, [sp, #8]
 8001e8a:	9006      	str	r0, [sp, #24]
 8001e8c:	9107      	str	r1, [sp, #28]
 8001e8e:	9104      	str	r1, [sp, #16]
 8001e90:	4808      	ldr	r0, [pc, #32]	; (8001eb4 <siprintf+0x38>)
 8001e92:	4909      	ldr	r1, [pc, #36]	; (8001eb8 <siprintf+0x3c>)
 8001e94:	f853 2b04 	ldr.w	r2, [r3], #4
 8001e98:	9105      	str	r1, [sp, #20]
 8001e9a:	6800      	ldr	r0, [r0, #0]
 8001e9c:	a902      	add	r1, sp, #8
 8001e9e:	9301      	str	r3, [sp, #4]
 8001ea0:	f000 f97c 	bl	800219c <_svfiprintf_r>
 8001ea4:	2200      	movs	r2, #0
 8001ea6:	9b02      	ldr	r3, [sp, #8]
 8001ea8:	701a      	strb	r2, [r3, #0]
 8001eaa:	b01c      	add	sp, #112	; 0x70
 8001eac:	f85d eb04 	ldr.w	lr, [sp], #4
 8001eb0:	b003      	add	sp, #12
 8001eb2:	4770      	bx	lr
 8001eb4:	20000050 	.word	0x20000050
 8001eb8:	ffff0208 	.word	0xffff0208

08001ebc <__assert_func>:
 8001ebc:	b51f      	push	{r0, r1, r2, r3, r4, lr}
 8001ebe:	4614      	mov	r4, r2
 8001ec0:	461a      	mov	r2, r3
 8001ec2:	4b09      	ldr	r3, [pc, #36]	; (8001ee8 <__assert_func+0x2c>)
 8001ec4:	4605      	mov	r5, r0
 8001ec6:	681b      	ldr	r3, [r3, #0]
 8001ec8:	68d8      	ldr	r0, [r3, #12]
 8001eca:	b14c      	cbz	r4, 8001ee0 <__assert_func+0x24>
 8001ecc:	4b07      	ldr	r3, [pc, #28]	; (8001eec <__assert_func+0x30>)
 8001ece:	e9cd 3401 	strd	r3, r4, [sp, #4]
 8001ed2:	9100      	str	r1, [sp, #0]
 8001ed4:	462b      	mov	r3, r5
 8001ed6:	4906      	ldr	r1, [pc, #24]	; (8001ef0 <__assert_func+0x34>)
 8001ed8:	f000 f80e 	bl	8001ef8 <fiprintf>
 8001edc:	f000 fe1c 	bl	8002b18 <abort>
 8001ee0:	4b04      	ldr	r3, [pc, #16]	; (8001ef4 <__assert_func+0x38>)
 8001ee2:	461c      	mov	r4, r3
 8001ee4:	e7f3      	b.n	8001ece <__assert_func+0x12>
 8001ee6:	bf00      	nop
 8001ee8:	20000050 	.word	0x20000050
 8001eec:	08003b7e 	.word	0x08003b7e
 8001ef0:	08003b8b 	.word	0x08003b8b
 8001ef4:	08003a6c 	.word	0x08003a6c

08001ef8 <fiprintf>:
 8001ef8:	b40e      	push	{r1, r2, r3}
 8001efa:	b503      	push	{r0, r1, lr}
 8001efc:	4601      	mov	r1, r0
 8001efe:	ab03      	add	r3, sp, #12
 8001f00:	4805      	ldr	r0, [pc, #20]	; (8001f18 <fiprintf+0x20>)
 8001f02:	f853 2b04 	ldr.w	r2, [r3], #4
 8001f06:	6800      	ldr	r0, [r0, #0]
 8001f08:	9301      	str	r3, [sp, #4]
 8001f0a:	f000 fa6f 	bl	80023ec <_vfiprintf_r>
 8001f0e:	b002      	add	sp, #8
 8001f10:	f85d eb04 	ldr.w	lr, [sp], #4
 8001f14:	b003      	add	sp, #12
 8001f16:	4770      	bx	lr
 8001f18:	20000050 	.word	0x20000050

08001f1c <malloc>:
 8001f1c:	4b02      	ldr	r3, [pc, #8]	; (8001f28 <malloc+0xc>)
 8001f1e:	4601      	mov	r1, r0
 8001f20:	6818      	ldr	r0, [r3, #0]
 8001f22:	f000 b86b 	b.w	8001ffc <_malloc_r>
 8001f26:	bf00      	nop
 8001f28:	20000050 	.word	0x20000050

08001f2c <_free_r>:
 8001f2c:	b538      	push	{r3, r4, r5, lr}
 8001f2e:	4605      	mov	r5, r0
 8001f30:	2900      	cmp	r1, #0
 8001f32:	d040      	beq.n	8001fb6 <_free_r+0x8a>
 8001f34:	f851 3c04 	ldr.w	r3, [r1, #-4]
 8001f38:	1f0c      	subs	r4, r1, #4
 8001f3a:	2b00      	cmp	r3, #0
 8001f3c:	bfb8      	it	lt
 8001f3e:	18e4      	addlt	r4, r4, r3
 8001f40:	f001 f844 	bl	8002fcc <__malloc_lock>
 8001f44:	4a1c      	ldr	r2, [pc, #112]	; (8001fb8 <_free_r+0x8c>)
 8001f46:	6813      	ldr	r3, [r2, #0]
 8001f48:	b933      	cbnz	r3, 8001f58 <_free_r+0x2c>
 8001f4a:	6063      	str	r3, [r4, #4]
 8001f4c:	6014      	str	r4, [r2, #0]
 8001f4e:	4628      	mov	r0, r5
 8001f50:	e8bd 4038 	ldmia.w	sp!, {r3, r4, r5, lr}
 8001f54:	f001 b840 	b.w	8002fd8 <__malloc_unlock>
 8001f58:	42a3      	cmp	r3, r4
 8001f5a:	d908      	bls.n	8001f6e <_free_r+0x42>
 8001f5c:	6820      	ldr	r0, [r4, #0]
 8001f5e:	1821      	adds	r1, r4, r0
 8001f60:	428b      	cmp	r3, r1
 8001f62:	bf01      	itttt	eq
 8001f64:	6819      	ldreq	r1, [r3, #0]
 8001f66:	685b      	ldreq	r3, [r3, #4]
 8001f68:	1809      	addeq	r1, r1, r0
 8001f6a:	6021      	streq	r1, [r4, #0]
 8001f6c:	e7ed      	b.n	8001f4a <_free_r+0x1e>
 8001f6e:	461a      	mov	r2, r3
 8001f70:	685b      	ldr	r3, [r3, #4]
 8001f72:	b10b      	cbz	r3, 8001f78 <_free_r+0x4c>
 8001f74:	42a3      	cmp	r3, r4
 8001f76:	d9fa      	bls.n	8001f6e <_free_r+0x42>
 8001f78:	6811      	ldr	r1, [r2, #0]
 8001f7a:	1850      	adds	r0, r2, r1
 8001f7c:	42a0      	cmp	r0, r4
 8001f7e:	d10b      	bne.n	8001f98 <_free_r+0x6c>
 8001f80:	6820      	ldr	r0, [r4, #0]
 8001f82:	4401      	add	r1, r0
 8001f84:	1850      	adds	r0, r2, r1
 8001f86:	4283      	cmp	r3, r0
 8001f88:	6011      	str	r1, [r2, #0]
 8001f8a:	d1e0      	bne.n	8001f4e <_free_r+0x22>
 8001f8c:	6818      	ldr	r0, [r3, #0]
 8001f8e:	685b      	ldr	r3, [r3, #4]
 8001f90:	4401      	add	r1, r0
 8001f92:	6011      	str	r1, [r2, #0]
 8001f94:	6053      	str	r3, [r2, #4]
 8001f96:	e7da      	b.n	8001f4e <_free_r+0x22>
 8001f98:	d902      	bls.n	8001fa0 <_free_r+0x74>
 8001f9a:	230c      	movs	r3, #12
 8001f9c:	602b      	str	r3, [r5, #0]
 8001f9e:	e7d6      	b.n	8001f4e <_free_r+0x22>
 8001fa0:	6820      	ldr	r0, [r4, #0]
 8001fa2:	1821      	adds	r1, r4, r0
 8001fa4:	428b      	cmp	r3, r1
 8001fa6:	bf01      	itttt	eq
 8001fa8:	6819      	ldreq	r1, [r3, #0]
 8001faa:	685b      	ldreq	r3, [r3, #4]
 8001fac:	1809      	addeq	r1, r1, r0
 8001fae:	6021      	streq	r1, [r4, #0]
 8001fb0:	6063      	str	r3, [r4, #4]
 8001fb2:	6054      	str	r4, [r2, #4]
 8001fb4:	e7cb      	b.n	8001f4e <_free_r+0x22>
 8001fb6:	bd38      	pop	{r3, r4, r5, pc}
 8001fb8:	20000258 	.word	0x20000258

08001fbc <sbrk_aligned>:
 8001fbc:	b570      	push	{r4, r5, r6, lr}
 8001fbe:	4e0e      	ldr	r6, [pc, #56]	; (8001ff8 <sbrk_aligned+0x3c>)
 8001fc0:	460c      	mov	r4, r1
 8001fc2:	6831      	ldr	r1, [r6, #0]
 8001fc4:	4605      	mov	r5, r0
 8001fc6:	b911      	cbnz	r1, 8001fce <sbrk_aligned+0x12>
 8001fc8:	f000 fcd6 	bl	8002978 <_sbrk_r>
 8001fcc:	6030      	str	r0, [r6, #0]
 8001fce:	4621      	mov	r1, r4
 8001fd0:	4628      	mov	r0, r5
 8001fd2:	f000 fcd1 	bl	8002978 <_sbrk_r>
 8001fd6:	1c43      	adds	r3, r0, #1
 8001fd8:	d00a      	beq.n	8001ff0 <sbrk_aligned+0x34>
 8001fda:	1cc4      	adds	r4, r0, #3
 8001fdc:	f024 0403 	bic.w	r4, r4, #3
 8001fe0:	42a0      	cmp	r0, r4
 8001fe2:	d007      	beq.n	8001ff4 <sbrk_aligned+0x38>
 8001fe4:	1a21      	subs	r1, r4, r0
 8001fe6:	4628      	mov	r0, r5
 8001fe8:	f000 fcc6 	bl	8002978 <_sbrk_r>
 8001fec:	3001      	adds	r0, #1
 8001fee:	d101      	bne.n	8001ff4 <sbrk_aligned+0x38>
 8001ff0:	f04f 34ff 	mov.w	r4, #4294967295
 8001ff4:	4620      	mov	r0, r4
 8001ff6:	bd70      	pop	{r4, r5, r6, pc}
 8001ff8:	2000025c 	.word	0x2000025c

08001ffc <_malloc_r>:
 8001ffc:	e92d 41f0 	stmdb	sp!, {r4, r5, r6, r7, r8, lr}
 8002000:	1ccd      	adds	r5, r1, #3
 8002002:	f025 0503 	bic.w	r5, r5, #3
 8002006:	3508      	adds	r5, #8
 8002008:	2d0c      	cmp	r5, #12
 800200a:	bf38      	it	cc
 800200c:	250c      	movcc	r5, #12
 800200e:	2d00      	cmp	r5, #0
 8002010:	4607      	mov	r7, r0
 8002012:	db01      	blt.n	8002018 <_malloc_r+0x1c>
 8002014:	42a9      	cmp	r1, r5
 8002016:	d905      	bls.n	8002024 <_malloc_r+0x28>
 8002018:	230c      	movs	r3, #12
 800201a:	2600      	movs	r6, #0
 800201c:	603b      	str	r3, [r7, #0]
 800201e:	4630      	mov	r0, r6
 8002020:	e8bd 81f0 	ldmia.w	sp!, {r4, r5, r6, r7, r8, pc}
 8002024:	4e2e      	ldr	r6, [pc, #184]	; (80020e0 <_malloc_r+0xe4>)
 8002026:	f000 ffd1 	bl	8002fcc <__malloc_lock>
 800202a:	6833      	ldr	r3, [r6, #0]
 800202c:	461c      	mov	r4, r3
 800202e:	bb34      	cbnz	r4, 800207e <_malloc_r+0x82>
 8002030:	4629      	mov	r1, r5
 8002032:	4638      	mov	r0, r7
 8002034:	f7ff ffc2 	bl	8001fbc <sbrk_aligned>
 8002038:	1c43      	adds	r3, r0, #1
 800203a:	4604      	mov	r4, r0
 800203c:	d14d      	bne.n	80020da <_malloc_r+0xde>
 800203e:	6834      	ldr	r4, [r6, #0]
 8002040:	4626      	mov	r6, r4
 8002042:	2e00      	cmp	r6, #0
 8002044:	d140      	bne.n	80020c8 <_malloc_r+0xcc>
 8002046:	6823      	ldr	r3, [r4, #0]
 8002048:	4631      	mov	r1, r6
 800204a:	4638      	mov	r0, r7
 800204c:	eb04 0803 	add.w	r8, r4, r3
 8002050:	f000 fc92 	bl	8002978 <_sbrk_r>
 8002054:	4580      	cmp	r8, r0
 8002056:	d13a      	bne.n	80020ce <_malloc_r+0xd2>
 8002058:	6821      	ldr	r1, [r4, #0]
 800205a:	3503      	adds	r5, #3
 800205c:	1a6d      	subs	r5, r5, r1
 800205e:	f025 0503 	bic.w	r5, r5, #3
 8002062:	3508      	adds	r5, #8
 8002064:	2d0c      	cmp	r5, #12
 8002066:	bf38      	it	cc
 8002068:	250c      	movcc	r5, #12
 800206a:	4638      	mov	r0, r7
 800206c:	4629      	mov	r1, r5
 800206e:	f7ff ffa5 	bl	8001fbc <sbrk_aligned>
 8002072:	3001      	adds	r0, #1
 8002074:	d02b      	beq.n	80020ce <_malloc_r+0xd2>
 8002076:	6823      	ldr	r3, [r4, #0]
 8002078:	442b      	add	r3, r5
 800207a:	6023      	str	r3, [r4, #0]
 800207c:	e00e      	b.n	800209c <_malloc_r+0xa0>
 800207e:	6822      	ldr	r2, [r4, #0]
 8002080:	1b52      	subs	r2, r2, r5
 8002082:	d41e      	bmi.n	80020c2 <_malloc_r+0xc6>
 8002084:	2a0b      	cmp	r2, #11
 8002086:	d916      	bls.n	80020b6 <_malloc_r+0xba>
 8002088:	1961      	adds	r1, r4, r5
 800208a:	42a3      	cmp	r3, r4
 800208c:	6025      	str	r5, [r4, #0]
 800208e:	bf18      	it	ne
 8002090:	6059      	strne	r1, [r3, #4]
 8002092:	6863      	ldr	r3, [r4, #4]
 8002094:	bf08      	it	eq
 8002096:	6031      	streq	r1, [r6, #0]
 8002098:	5162      	str	r2, [r4, r5]
 800209a:	604b      	str	r3, [r1, #4]
 800209c:	4638      	mov	r0, r7
 800209e:	f104 060b 	add.w	r6, r4, #11
 80020a2:	f000 ff99 	bl	8002fd8 <__malloc_unlock>
 80020a6:	f026 0607 	bic.w	r6, r6, #7
 80020aa:	1d23      	adds	r3, r4, #4
 80020ac:	1af2      	subs	r2, r6, r3
 80020ae:	d0b6      	beq.n	800201e <_malloc_r+0x22>
 80020b0:	1b9b      	subs	r3, r3, r6
 80020b2:	50a3      	str	r3, [r4, r2]
 80020b4:	e7b3      	b.n	800201e <_malloc_r+0x22>
 80020b6:	6862      	ldr	r2, [r4, #4]
 80020b8:	42a3      	cmp	r3, r4
 80020ba:	bf0c      	ite	eq
 80020bc:	6032      	streq	r2, [r6, #0]
 80020be:	605a      	strne	r2, [r3, #4]
 80020c0:	e7ec      	b.n	800209c <_malloc_r+0xa0>
 80020c2:	4623      	mov	r3, r4
 80020c4:	6864      	ldr	r4, [r4, #4]
 80020c6:	e7b2      	b.n	800202e <_malloc_r+0x32>
 80020c8:	4634      	mov	r4, r6
 80020ca:	6876      	ldr	r6, [r6, #4]
 80020cc:	e7b9      	b.n	8002042 <_malloc_r+0x46>
 80020ce:	230c      	movs	r3, #12
 80020d0:	4638      	mov	r0, r7
 80020d2:	603b      	str	r3, [r7, #0]
 80020d4:	f000 ff80 	bl	8002fd8 <__malloc_unlock>
 80020d8:	e7a1      	b.n	800201e <_malloc_r+0x22>
 80020da:	6025      	str	r5, [r4, #0]
 80020dc:	e7de      	b.n	800209c <_malloc_r+0xa0>
 80020de:	bf00      	nop
 80020e0:	20000258 	.word	0x20000258

080020e4 <__ssputs_r>:
 80020e4:	e92d 47f0 	stmdb	sp!, {r4, r5, r6, r7, r8, r9, sl, lr}
 80020e8:	688e      	ldr	r6, [r1, #8]
 80020ea:	4682      	mov	sl, r0
 80020ec:	429e      	cmp	r6, r3
 80020ee:	460c      	mov	r4, r1
 80020f0:	4690      	mov	r8, r2
 80020f2:	461f      	mov	r7, r3
 80020f4:	d838      	bhi.n	8002168 <__ssputs_r+0x84>
 80020f6:	898a      	ldrh	r2, [r1, #12]
 80020f8:	f412 6f90 	tst.w	r2, #1152	; 0x480
 80020fc:	d032      	beq.n	8002164 <__ssputs_r+0x80>
 80020fe:	6825      	ldr	r5, [r4, #0]
 8002100:	6909      	ldr	r1, [r1, #16]
 8002102:	3301      	adds	r3, #1
 8002104:	eba5 0901 	sub.w	r9, r5, r1
 8002108:	6965      	ldr	r5, [r4, #20]
 800210a:	444b      	add	r3, r9
 800210c:	eb05 0545 	add.w	r5, r5, r5, lsl #1
 8002110:	eb05 75d5 	add.w	r5, r5, r5, lsr #31
 8002114:	106d      	asrs	r5, r5, #1
 8002116:	429d      	cmp	r5, r3
 8002118:	bf38      	it	cc
 800211a:	461d      	movcc	r5, r3
 800211c:	0553      	lsls	r3, r2, #21
 800211e:	d531      	bpl.n	8002184 <__ssputs_r+0xa0>
 8002120:	4629      	mov	r1, r5
 8002122:	f7ff ff6b 	bl	8001ffc <_malloc_r>
 8002126:	4606      	mov	r6, r0
 8002128:	b950      	cbnz	r0, 8002140 <__ssputs_r+0x5c>
 800212a:	230c      	movs	r3, #12
 800212c:	f04f 30ff 	mov.w	r0, #4294967295
 8002130:	f8ca 3000 	str.w	r3, [sl]
 8002134:	89a3      	ldrh	r3, [r4, #12]
 8002136:	f043 0340 	orr.w	r3, r3, #64	; 0x40
 800213a:	81a3      	strh	r3, [r4, #12]
 800213c:	e8bd 87f0 	ldmia.w	sp!, {r4, r5, r6, r7, r8, r9, sl, pc}
 8002140:	464a      	mov	r2, r9
 8002142:	6921      	ldr	r1, [r4, #16]
 8002144:	f000 ff1a 	bl	8002f7c <memcpy>
 8002148:	89a3      	ldrh	r3, [r4, #12]
 800214a:	f423 6390 	bic.w	r3, r3, #1152	; 0x480
 800214e:	f043 0380 	orr.w	r3, r3, #128	; 0x80
 8002152:	81a3      	strh	r3, [r4, #12]
 8002154:	6126      	str	r6, [r4, #16]
 8002156:	444e      	add	r6, r9
 8002158:	6026      	str	r6, [r4, #0]
 800215a:	463e      	mov	r6, r7
 800215c:	6165      	str	r5, [r4, #20]
 800215e:	eba5 0509 	sub.w	r5, r5, r9
 8002162:	60a5      	str	r5, [r4, #8]
 8002164:	42be      	cmp	r6, r7
 8002166:	d900      	bls.n	800216a <__ssputs_r+0x86>
 8002168:	463e      	mov	r6, r7
 800216a:	4632      	mov	r2, r6
 800216c:	4641      	mov	r1, r8
 800216e:	6820      	ldr	r0, [r4, #0]
 8002170:	f000 ff12 	bl	8002f98 <memmove>
 8002174:	68a3      	ldr	r3, [r4, #8]
 8002176:	2000      	movs	r0, #0
 8002178:	1b9b      	subs	r3, r3, r6
 800217a:	60a3      	str	r3, [r4, #8]
 800217c:	6823      	ldr	r3, [r4, #0]
 800217e:	4433      	add	r3, r6
 8002180:	6023      	str	r3, [r4, #0]
 8002182:	e7db      	b.n	800213c <__ssputs_r+0x58>
 8002184:	462a      	mov	r2, r5
 8002186:	f000 ff2d 	bl	8002fe4 <_realloc_r>
 800218a:	4606      	mov	r6, r0
 800218c:	2800      	cmp	r0, #0
 800218e:	d1e1      	bne.n	8002154 <__ssputs_r+0x70>
 8002190:	4650      	mov	r0, sl
 8002192:	6921      	ldr	r1, [r4, #16]
 8002194:	f7ff feca 	bl	8001f2c <_free_r>
 8002198:	e7c7      	b.n	800212a <__ssputs_r+0x46>
	...

0800219c <_svfiprintf_r>:
 800219c:	e92d 4ff0 	stmdb	sp!, {r4, r5, r6, r7, r8, r9, sl, fp, lr}
 80021a0:	4698      	mov	r8, r3
 80021a2:	898b      	ldrh	r3, [r1, #12]
 80021a4:	4607      	mov	r7, r0
 80021a6:	061b      	lsls	r3, r3, #24
 80021a8:	460d      	mov	r5, r1
 80021aa:	4614      	mov	r4, r2
 80021ac:	b09d      	sub	sp, #116	; 0x74
 80021ae:	d50e      	bpl.n	80021ce <_svfiprintf_r+0x32>
 80021b0:	690b      	ldr	r3, [r1, #16]
 80021b2:	b963      	cbnz	r3, 80021ce <_svfiprintf_r+0x32>
 80021b4:	2140      	movs	r1, #64	; 0x40
 80021b6:	f7ff ff21 	bl	8001ffc <_malloc_r>
 80021ba:	6028      	str	r0, [r5, #0]
 80021bc:	6128      	str	r0, [r5, #16]
 80021be:	b920      	cbnz	r0, 80021ca <_svfiprintf_r+0x2e>
 80021c0:	230c      	movs	r3, #12
 80021c2:	603b      	str	r3, [r7, #0]
 80021c4:	f04f 30ff 	mov.w	r0, #4294967295
 80021c8:	e0d1      	b.n	800236e <_svfiprintf_r+0x1d2>
 80021ca:	2340      	movs	r3, #64	; 0x40
 80021cc:	616b      	str	r3, [r5, #20]
 80021ce:	2300      	movs	r3, #0
 80021d0:	9309      	str	r3, [sp, #36]	; 0x24
 80021d2:	2320      	movs	r3, #32
 80021d4:	f88d 3029 	strb.w	r3, [sp, #41]	; 0x29
 80021d8:	2330      	movs	r3, #48	; 0x30
 80021da:	f04f 0901 	mov.w	r9, #1
 80021de:	f8cd 800c 	str.w	r8, [sp, #12]
 80021e2:	f8df 81a4 	ldr.w	r8, [pc, #420]	; 8002388 <_svfiprintf_r+0x1ec>
 80021e6:	f88d 302a 	strb.w	r3, [sp, #42]	; 0x2a
 80021ea:	4623      	mov	r3, r4
 80021ec:	469a      	mov	sl, r3
 80021ee:	f813 2b01 	ldrb.w	r2, [r3], #1
 80021f2:	b10a      	cbz	r2, 80021f8 <_svfiprintf_r+0x5c>
 80021f4:	2a25      	cmp	r2, #37	; 0x25
 80021f6:	d1f9      	bne.n	80021ec <_svfiprintf_r+0x50>
 80021f8:	ebba 0b04 	subs.w	fp, sl, r4
 80021fc:	d00b      	beq.n	8002216 <_svfiprintf_r+0x7a>
 80021fe:	465b      	mov	r3, fp
 8002200:	4622      	mov	r2, r4
 8002202:	4629      	mov	r1, r5
 8002204:	4638      	mov	r0, r7
 8002206:	f7ff ff6d 	bl	80020e4 <__ssputs_r>
 800220a:	3001      	adds	r0, #1
 800220c:	f000 80aa 	beq.w	8002364 <_svfiprintf_r+0x1c8>
 8002210:	9a09      	ldr	r2, [sp, #36]	; 0x24
 8002212:	445a      	add	r2, fp
 8002214:	9209      	str	r2, [sp, #36]	; 0x24
 8002216:	f89a 3000 	ldrb.w	r3, [sl]
 800221a:	2b00      	cmp	r3, #0
 800221c:	f000 80a2 	beq.w	8002364 <_svfiprintf_r+0x1c8>
 8002220:	2300      	movs	r3, #0
 8002222:	f04f 32ff 	mov.w	r2, #4294967295
 8002226:	e9cd 2305 	strd	r2, r3, [sp, #20]
 800222a:	f10a 0a01 	add.w	sl, sl, #1
 800222e:	9304      	str	r3, [sp, #16]
 8002230:	9307      	str	r3, [sp, #28]
 8002232:	f88d 3053 	strb.w	r3, [sp, #83]	; 0x53
 8002236:	931a      	str	r3, [sp, #104]	; 0x68
 8002238:	4654      	mov	r4, sl
 800223a:	2205      	movs	r2, #5
 800223c:	f814 1b01 	ldrb.w	r1, [r4], #1
 8002240:	4851      	ldr	r0, [pc, #324]	; (8002388 <_svfiprintf_r+0x1ec>)
 8002242:	f000 fe8d 	bl	8002f60 <memchr>
 8002246:	9a04      	ldr	r2, [sp, #16]
 8002248:	b9d8      	cbnz	r0, 8002282 <_svfiprintf_r+0xe6>
 800224a:	06d0      	lsls	r0, r2, #27
 800224c:	bf44      	itt	mi
 800224e:	2320      	movmi	r3, #32
 8002250:	f88d 3053 	strbmi.w	r3, [sp, #83]	; 0x53
 8002254:	0711      	lsls	r1, r2, #28
 8002256:	bf44      	itt	mi
 8002258:	232b      	movmi	r3, #43	; 0x2b
 800225a:	f88d 3053 	strbmi.w	r3, [sp, #83]	; 0x53
 800225e:	f89a 3000 	ldrb.w	r3, [sl]
 8002262:	2b2a      	cmp	r3, #42	; 0x2a
 8002264:	d015      	beq.n	8002292 <_svfiprintf_r+0xf6>
 8002266:	4654      	mov	r4, sl
 8002268:	2000      	movs	r0, #0
 800226a:	f04f 0c0a 	mov.w	ip, #10
 800226e:	9a07      	ldr	r2, [sp, #28]
 8002270:	4621      	mov	r1, r4
 8002272:	f811 3b01 	ldrb.w	r3, [r1], #1
 8002276:	3b30      	subs	r3, #48	; 0x30
 8002278:	2b09      	cmp	r3, #9
 800227a:	d94e      	bls.n	800231a <_svfiprintf_r+0x17e>
 800227c:	b1b0      	cbz	r0, 80022ac <_svfiprintf_r+0x110>
 800227e:	9207      	str	r2, [sp, #28]
 8002280:	e014      	b.n	80022ac <_svfiprintf_r+0x110>
 8002282:	eba0 0308 	sub.w	r3, r0, r8
 8002286:	fa09 f303 	lsl.w	r3, r9, r3
 800228a:	4313      	orrs	r3, r2
 800228c:	46a2      	mov	sl, r4
 800228e:	9304      	str	r3, [sp, #16]
 8002290:	e7d2      	b.n	8002238 <_svfiprintf_r+0x9c>
 8002292:	9b03      	ldr	r3, [sp, #12]
 8002294:	1d19      	adds	r1, r3, #4
 8002296:	681b      	ldr	r3, [r3, #0]
 8002298:	9103      	str	r1, [sp, #12]
 800229a:	2b00      	cmp	r3, #0
 800229c:	bfbb      	ittet	lt
 800229e:	425b      	neglt	r3, r3
 80022a0:	f042 0202 	orrlt.w	r2, r2, #2
 80022a4:	9307      	strge	r3, [sp, #28]
 80022a6:	9307      	strlt	r3, [sp, #28]
 80022a8:	bfb8      	it	lt
 80022aa:	9204      	strlt	r2, [sp, #16]
 80022ac:	7823      	ldrb	r3, [r4, #0]
 80022ae:	2b2e      	cmp	r3, #46	; 0x2e
 80022b0:	d10c      	bne.n	80022cc <_svfiprintf_r+0x130>
 80022b2:	7863      	ldrb	r3, [r4, #1]
 80022b4:	2b2a      	cmp	r3, #42	; 0x2a
 80022b6:	d135      	bne.n	8002324 <_svfiprintf_r+0x188>
 80022b8:	9b03      	ldr	r3, [sp, #12]
 80022ba:	3402      	adds	r4, #2
 80022bc:	1d1a      	adds	r2, r3, #4
 80022be:	681b      	ldr	r3, [r3, #0]
 80022c0:	9203      	str	r2, [sp, #12]
 80022c2:	2b00      	cmp	r3, #0
 80022c4:	bfb8      	it	lt
 80022c6:	f04f 33ff 	movlt.w	r3, #4294967295
 80022ca:	9305      	str	r3, [sp, #20]
 80022cc:	f8df a0bc 	ldr.w	sl, [pc, #188]	; 800238c <_svfiprintf_r+0x1f0>
 80022d0:	2203      	movs	r2, #3
 80022d2:	4650      	mov	r0, sl
 80022d4:	7821      	ldrb	r1, [r4, #0]
 80022d6:	f000 fe43 	bl	8002f60 <memchr>
 80022da:	b140      	cbz	r0, 80022ee <_svfiprintf_r+0x152>
 80022dc:	2340      	movs	r3, #64	; 0x40
 80022de:	eba0 000a 	sub.w	r0, r0, sl
 80022e2:	fa03 f000 	lsl.w	r0, r3, r0
 80022e6:	9b04      	ldr	r3, [sp, #16]
 80022e8:	3401      	adds	r4, #1
 80022ea:	4303      	orrs	r3, r0
 80022ec:	9304      	str	r3, [sp, #16]
 80022ee:	f814 1b01 	ldrb.w	r1, [r4], #1
 80022f2:	2206      	movs	r2, #6
 80022f4:	4826      	ldr	r0, [pc, #152]	; (8002390 <_svfiprintf_r+0x1f4>)
 80022f6:	f88d 1028 	strb.w	r1, [sp, #40]	; 0x28
 80022fa:	f000 fe31 	bl	8002f60 <memchr>
 80022fe:	2800      	cmp	r0, #0
 8002300:	d038      	beq.n	8002374 <_svfiprintf_r+0x1d8>
 8002302:	4b24      	ldr	r3, [pc, #144]	; (8002394 <_svfiprintf_r+0x1f8>)
 8002304:	bb1b      	cbnz	r3, 800234e <_svfiprintf_r+0x1b2>
 8002306:	9b03      	ldr	r3, [sp, #12]
 8002308:	3307      	adds	r3, #7
 800230a:	f023 0307 	bic.w	r3, r3, #7
 800230e:	3308      	adds	r3, #8
 8002310:	9303      	str	r3, [sp, #12]
 8002312:	9b09      	ldr	r3, [sp, #36]	; 0x24
 8002314:	4433      	add	r3, r6
 8002316:	9309      	str	r3, [sp, #36]	; 0x24
 8002318:	e767      	b.n	80021ea <_svfiprintf_r+0x4e>
 800231a:	460c      	mov	r4, r1
 800231c:	2001      	movs	r0, #1
 800231e:	fb0c 3202 	mla	r2, ip, r2, r3
 8002322:	e7a5      	b.n	8002270 <_svfiprintf_r+0xd4>
 8002324:	2300      	movs	r3, #0
 8002326:	f04f 0c0a 	mov.w	ip, #10
 800232a:	4619      	mov	r1, r3
 800232c:	3401      	adds	r4, #1
 800232e:	9305      	str	r3, [sp, #20]
 8002330:	4620      	mov	r0, r4
 8002332:	f810 2b01 	ldrb.w	r2, [r0], #1
 8002336:	3a30      	subs	r2, #48	; 0x30
 8002338:	2a09      	cmp	r2, #9
 800233a:	d903      	bls.n	8002344 <_svfiprintf_r+0x1a8>
 800233c:	2b00      	cmp	r3, #0
 800233e:	d0c5      	beq.n	80022cc <_svfiprintf_r+0x130>
 8002340:	9105      	str	r1, [sp, #20]
 8002342:	e7c3      	b.n	80022cc <_svfiprintf_r+0x130>
 8002344:	4604      	mov	r4, r0
 8002346:	2301      	movs	r3, #1
 8002348:	fb0c 2101 	mla	r1, ip, r1, r2
 800234c:	e7f0      	b.n	8002330 <_svfiprintf_r+0x194>
 800234e:	ab03      	add	r3, sp, #12
 8002350:	9300      	str	r3, [sp, #0]
 8002352:	462a      	mov	r2, r5
 8002354:	4638      	mov	r0, r7
 8002356:	4b10      	ldr	r3, [pc, #64]	; (8002398 <_svfiprintf_r+0x1fc>)
 8002358:	a904      	add	r1, sp, #16
 800235a:	f3af 8000 	nop.w
 800235e:	1c42      	adds	r2, r0, #1
 8002360:	4606      	mov	r6, r0
 8002362:	d1d6      	bne.n	8002312 <_svfiprintf_r+0x176>
 8002364:	89ab      	ldrh	r3, [r5, #12]
 8002366:	065b      	lsls	r3, r3, #25
 8002368:	f53f af2c 	bmi.w	80021c4 <_svfiprintf_r+0x28>
 800236c:	9809      	ldr	r0, [sp, #36]	; 0x24
 800236e:	b01d      	add	sp, #116	; 0x74
 8002370:	e8bd 8ff0 	ldmia.w	sp!, {r4, r5, r6, r7, r8, r9, sl, fp, pc}
 8002374:	ab03      	add	r3, sp, #12
 8002376:	9300      	str	r3, [sp, #0]
 8002378:	462a      	mov	r2, r5
 800237a:	4638      	mov	r0, r7
 800237c:	4b06      	ldr	r3, [pc, #24]	; (8002398 <_svfiprintf_r+0x1fc>)
 800237e:	a904      	add	r1, sp, #16
 8002380:	f000 f9d4 	bl	800272c <_printf_i>
 8002384:	e7eb      	b.n	800235e <_svfiprintf_r+0x1c2>
 8002386:	bf00      	nop
 8002388:	08003bba 	.word	0x08003bba
 800238c:	08003bc0 	.word	0x08003bc0
 8002390:	08003bc4 	.word	0x08003bc4
 8002394:	00000000 	.word	0x00000000
 8002398:	080020e5 	.word	0x080020e5

0800239c <__sfputc_r>:
 800239c:	6893      	ldr	r3, [r2, #8]
 800239e:	b410      	push	{r4}
 80023a0:	3b01      	subs	r3, #1
 80023a2:	2b00      	cmp	r3, #0
 80023a4:	6093      	str	r3, [r2, #8]
 80023a6:	da07      	bge.n	80023b8 <__sfputc_r+0x1c>
 80023a8:	6994      	ldr	r4, [r2, #24]
 80023aa:	42a3      	cmp	r3, r4
 80023ac:	db01      	blt.n	80023b2 <__sfputc_r+0x16>
 80023ae:	290a      	cmp	r1, #10
 80023b0:	d102      	bne.n	80023b8 <__sfputc_r+0x1c>
 80023b2:	bc10      	pop	{r4}
 80023b4:	f000 baf0 	b.w	8002998 <__swbuf_r>
 80023b8:	6813      	ldr	r3, [r2, #0]
 80023ba:	1c58      	adds	r0, r3, #1
 80023bc:	6010      	str	r0, [r2, #0]
 80023be:	7019      	strb	r1, [r3, #0]
 80023c0:	4608      	mov	r0, r1
 80023c2:	bc10      	pop	{r4}
 80023c4:	4770      	bx	lr

080023c6 <__sfputs_r>:
 80023c6:	b5f8      	push	{r3, r4, r5, r6, r7, lr}
 80023c8:	4606      	mov	r6, r0
 80023ca:	460f      	mov	r7, r1
 80023cc:	4614      	mov	r4, r2
 80023ce:	18d5      	adds	r5, r2, r3
 80023d0:	42ac      	cmp	r4, r5
 80023d2:	d101      	bne.n	80023d8 <__sfputs_r+0x12>
 80023d4:	2000      	movs	r0, #0
 80023d6:	e007      	b.n	80023e8 <__sfputs_r+0x22>
 80023d8:	463a      	mov	r2, r7
 80023da:	4630      	mov	r0, r6
 80023dc:	f814 1b01 	ldrb.w	r1, [r4], #1
 80023e0:	f7ff ffdc 	bl	800239c <__sfputc_r>
 80023e4:	1c43      	adds	r3, r0, #1
 80023e6:	d1f3      	bne.n	80023d0 <__sfputs_r+0xa>
 80023e8:	bdf8      	pop	{r3, r4, r5, r6, r7, pc}
	...

080023ec <_vfiprintf_r>:
 80023ec:	e92d 4ff0 	stmdb	sp!, {r4, r5, r6, r7, r8, r9, sl, fp, lr}
 80023f0:	460d      	mov	r5, r1
 80023f2:	4614      	mov	r4, r2
 80023f4:	4698      	mov	r8, r3
 80023f6:	4606      	mov	r6, r0
 80023f8:	b09d      	sub	sp, #116	; 0x74
 80023fa:	b118      	cbz	r0, 8002404 <_vfiprintf_r+0x18>
 80023fc:	6983      	ldr	r3, [r0, #24]
 80023fe:	b90b      	cbnz	r3, 8002404 <_vfiprintf_r+0x18>
 8002400:	f000 fca8 	bl	8002d54 <__sinit>
 8002404:	4b89      	ldr	r3, [pc, #548]	; (800262c <_vfiprintf_r+0x240>)
 8002406:	429d      	cmp	r5, r3
 8002408:	d11b      	bne.n	8002442 <_vfiprintf_r+0x56>
 800240a:	6875      	ldr	r5, [r6, #4]
 800240c:	6e6b      	ldr	r3, [r5, #100]	; 0x64
 800240e:	07d9      	lsls	r1, r3, #31
 8002410:	d405      	bmi.n	800241e <_vfiprintf_r+0x32>
 8002412:	89ab      	ldrh	r3, [r5, #12]
 8002414:	059a      	lsls	r2, r3, #22
 8002416:	d402      	bmi.n	800241e <_vfiprintf_r+0x32>
 8002418:	6da8      	ldr	r0, [r5, #88]	; 0x58
 800241a:	f000 fd39 	bl	8002e90 <__retarget_lock_acquire_recursive>
 800241e:	89ab      	ldrh	r3, [r5, #12]
 8002420:	071b      	lsls	r3, r3, #28
 8002422:	d501      	bpl.n	8002428 <_vfiprintf_r+0x3c>
 8002424:	692b      	ldr	r3, [r5, #16]
 8002426:	b9eb      	cbnz	r3, 8002464 <_vfiprintf_r+0x78>
 8002428:	4629      	mov	r1, r5
 800242a:	4630      	mov	r0, r6
 800242c:	f000 fb06 	bl	8002a3c <__swsetup_r>
 8002430:	b1c0      	cbz	r0, 8002464 <_vfiprintf_r+0x78>
 8002432:	6e6b      	ldr	r3, [r5, #100]	; 0x64
 8002434:	07dc      	lsls	r4, r3, #31
 8002436:	d50e      	bpl.n	8002456 <_vfiprintf_r+0x6a>
 8002438:	f04f 30ff 	mov.w	r0, #4294967295
 800243c:	b01d      	add	sp, #116	; 0x74
 800243e:	e8bd 8ff0 	ldmia.w	sp!, {r4, r5, r6, r7, r8, r9, sl, fp, pc}
 8002442:	4b7b      	ldr	r3, [pc, #492]	; (8002630 <_vfiprintf_r+0x244>)
 8002444:	429d      	cmp	r5, r3
 8002446:	d101      	bne.n	800244c <_vfiprintf_r+0x60>
 8002448:	68b5      	ldr	r5, [r6, #8]
 800244a:	e7df      	b.n	800240c <_vfiprintf_r+0x20>
 800244c:	4b79      	ldr	r3, [pc, #484]	; (8002634 <_vfiprintf_r+0x248>)
 800244e:	429d      	cmp	r5, r3
 8002450:	bf08      	it	eq
 8002452:	68f5      	ldreq	r5, [r6, #12]
 8002454:	e7da      	b.n	800240c <_vfiprintf_r+0x20>
 8002456:	89ab      	ldrh	r3, [r5, #12]
 8002458:	0598      	lsls	r0, r3, #22
 800245a:	d4ed      	bmi.n	8002438 <_vfiprintf_r+0x4c>
 800245c:	6da8      	ldr	r0, [r5, #88]	; 0x58
 800245e:	f000 fd18 	bl	8002e92 <__retarget_lock_release_recursive>
 8002462:	e7e9      	b.n	8002438 <_vfiprintf_r+0x4c>
 8002464:	2300      	movs	r3, #0
 8002466:	9309      	str	r3, [sp, #36]	; 0x24
 8002468:	2320      	movs	r3, #32
 800246a:	f88d 3029 	strb.w	r3, [sp, #41]	; 0x29
 800246e:	2330      	movs	r3, #48	; 0x30
 8002470:	f04f 0901 	mov.w	r9, #1
 8002474:	f8cd 800c 	str.w	r8, [sp, #12]
 8002478:	f8df 81bc 	ldr.w	r8, [pc, #444]	; 8002638 <_vfiprintf_r+0x24c>
 800247c:	f88d 302a 	strb.w	r3, [sp, #42]	; 0x2a
 8002480:	4623      	mov	r3, r4
 8002482:	469a      	mov	sl, r3
 8002484:	f813 2b01 	ldrb.w	r2, [r3], #1
 8002488:	b10a      	cbz	r2, 800248e <_vfiprintf_r+0xa2>
 800248a:	2a25      	cmp	r2, #37	; 0x25
 800248c:	d1f9      	bne.n	8002482 <_vfiprintf_r+0x96>
 800248e:	ebba 0b04 	subs.w	fp, sl, r4
 8002492:	d00b      	beq.n	80024ac <_vfiprintf_r+0xc0>
 8002494:	465b      	mov	r3, fp
 8002496:	4622      	mov	r2, r4
 8002498:	4629      	mov	r1, r5
 800249a:	4630      	mov	r0, r6
 800249c:	f7ff ff93 	bl	80023c6 <__sfputs_r>
 80024a0:	3001      	adds	r0, #1
 80024a2:	f000 80aa 	beq.w	80025fa <_vfiprintf_r+0x20e>
 80024a6:	9a09      	ldr	r2, [sp, #36]	; 0x24
 80024a8:	445a      	add	r2, fp
 80024aa:	9209      	str	r2, [sp, #36]	; 0x24
 80024ac:	f89a 3000 	ldrb.w	r3, [sl]
 80024b0:	2b00      	cmp	r3, #0
 80024b2:	f000 80a2 	beq.w	80025fa <_vfiprintf_r+0x20e>
 80024b6:	2300      	movs	r3, #0
 80024b8:	f04f 32ff 	mov.w	r2, #4294967295
 80024bc:	e9cd 2305 	strd	r2, r3, [sp, #20]
 80024c0:	f10a 0a01 	add.w	sl, sl, #1
 80024c4:	9304      	str	r3, [sp, #16]
 80024c6:	9307      	str	r3, [sp, #28]
 80024c8:	f88d 3053 	strb.w	r3, [sp, #83]	; 0x53
 80024cc:	931a      	str	r3, [sp, #104]	; 0x68
 80024ce:	4654      	mov	r4, sl
 80024d0:	2205      	movs	r2, #5
 80024d2:	f814 1b01 	ldrb.w	r1, [r4], #1
 80024d6:	4858      	ldr	r0, [pc, #352]	; (8002638 <_vfiprintf_r+0x24c>)
 80024d8:	f000 fd42 	bl	8002f60 <memchr>
 80024dc:	9a04      	ldr	r2, [sp, #16]
 80024de:	b9d8      	cbnz	r0, 8002518 <_vfiprintf_r+0x12c>
 80024e0:	06d1      	lsls	r1, r2, #27
 80024e2:	bf44      	itt	mi
 80024e4:	2320      	movmi	r3, #32
 80024e6:	f88d 3053 	strbmi.w	r3, [sp, #83]	; 0x53
 80024ea:	0713      	lsls	r3, r2, #28
 80024ec:	bf44      	itt	mi
 80024ee:	232b      	movmi	r3, #43	; 0x2b
 80024f0:	f88d 3053 	strbmi.w	r3, [sp, #83]	; 0x53
 80024f4:	f89a 3000 	ldrb.w	r3, [sl]
 80024f8:	2b2a      	cmp	r3, #42	; 0x2a
 80024fa:	d015      	beq.n	8002528 <_vfiprintf_r+0x13c>
 80024fc:	4654      	mov	r4, sl
 80024fe:	2000      	movs	r0, #0
 8002500:	f04f 0c0a 	mov.w	ip, #10
 8002504:	9a07      	ldr	r2, [sp, #28]
 8002506:	4621      	mov	r1, r4
 8002508:	f811 3b01 	ldrb.w	r3, [r1], #1
 800250c:	3b30      	subs	r3, #48	; 0x30
 800250e:	2b09      	cmp	r3, #9
 8002510:	d94e      	bls.n	80025b0 <_vfiprintf_r+0x1c4>
 8002512:	b1b0      	cbz	r0, 8002542 <_vfiprintf_r+0x156>
 8002514:	9207      	str	r2, [sp, #28]
 8002516:	e014      	b.n	8002542 <_vfiprintf_r+0x156>
 8002518:	eba0 0308 	sub.w	r3, r0, r8
 800251c:	fa09 f303 	lsl.w	r3, r9, r3
 8002520:	4313      	orrs	r3, r2
 8002522:	46a2      	mov	sl, r4
 8002524:	9304      	str	r3, [sp, #16]
 8002526:	e7d2      	b.n	80024ce <_vfiprintf_r+0xe2>
 8002528:	9b03      	ldr	r3, [sp, #12]
 800252a:	1d19      	adds	r1, r3, #4
 800252c:	681b      	ldr	r3, [r3, #0]
 800252e:	9103      	str	r1, [sp, #12]
 8002530:	2b00      	cmp	r3, #0
 8002532:	bfbb      	ittet	lt
 8002534:	425b      	neglt	r3, r3
 8002536:	f042 0202 	orrlt.w	r2, r2, #2
 800253a:	9307      	strge	r3, [sp, #28]
 800253c:	9307      	strlt	r3, [sp, #28]
 800253e:	bfb8      	it	lt
 8002540:	9204      	strlt	r2, [sp, #16]
 8002542:	7823      	ldrb	r3, [r4, #0]
 8002544:	2b2e      	cmp	r3, #46	; 0x2e
 8002546:	d10c      	bne.n	8002562 <_vfiprintf_r+0x176>
 8002548:	7863      	ldrb	r3, [r4, #1]
 800254a:	2b2a      	cmp	r3, #42	; 0x2a
 800254c:	d135      	bne.n	80025ba <_vfiprintf_r+0x1ce>
 800254e:	9b03      	ldr	r3, [sp, #12]
 8002550:	3402      	adds	r4, #2
 8002552:	1d1a      	adds	r2, r3, #4
 8002554:	681b      	ldr	r3, [r3, #0]
 8002556:	9203      	str	r2, [sp, #12]
 8002558:	2b00      	cmp	r3, #0
 800255a:	bfb8      	it	lt
 800255c:	f04f 33ff 	movlt.w	r3, #4294967295
 8002560:	9305      	str	r3, [sp, #20]
 8002562:	f8df a0d8 	ldr.w	sl, [pc, #216]	; 800263c <_vfiprintf_r+0x250>
 8002566:	2203      	movs	r2, #3
 8002568:	4650      	mov	r0, sl
 800256a:	7821      	ldrb	r1, [r4, #0]
 800256c:	f000 fcf8 	bl	8002f60 <memchr>
 8002570:	b140      	cbz	r0, 8002584 <_vfiprintf_r+0x198>
 8002572:	2340      	movs	r3, #64	; 0x40
 8002574:	eba0 000a 	sub.w	r0, r0, sl
 8002578:	fa03 f000 	lsl.w	r0, r3, r0
 800257c:	9b04      	ldr	r3, [sp, #16]
 800257e:	3401      	adds	r4, #1
 8002580:	4303      	orrs	r3, r0
 8002582:	9304      	str	r3, [sp, #16]
 8002584:	f814 1b01 	ldrb.w	r1, [r4], #1
 8002588:	2206      	movs	r2, #6
 800258a:	482d      	ldr	r0, [pc, #180]	; (8002640 <_vfiprintf_r+0x254>)
 800258c:	f88d 1028 	strb.w	r1, [sp, #40]	; 0x28
 8002590:	f000 fce6 	bl	8002f60 <memchr>
 8002594:	2800      	cmp	r0, #0
 8002596:	d03f      	beq.n	8002618 <_vfiprintf_r+0x22c>
 8002598:	4b2a      	ldr	r3, [pc, #168]	; (8002644 <_vfiprintf_r+0x258>)
 800259a:	bb1b      	cbnz	r3, 80025e4 <_vfiprintf_r+0x1f8>
 800259c:	9b03      	ldr	r3, [sp, #12]
 800259e:	3307      	adds	r3, #7
 80025a0:	f023 0307 	bic.w	r3, r3, #7
 80025a4:	3308      	adds	r3, #8
 80025a6:	9303      	str	r3, [sp, #12]
 80025a8:	9b09      	ldr	r3, [sp, #36]	; 0x24
 80025aa:	443b      	add	r3, r7
 80025ac:	9309      	str	r3, [sp, #36]	; 0x24
 80025ae:	e767      	b.n	8002480 <_vfiprintf_r+0x94>
 80025b0:	460c      	mov	r4, r1
 80025b2:	2001      	movs	r0, #1
 80025b4:	fb0c 3202 	mla	r2, ip, r2, r3
 80025b8:	e7a5      	b.n	8002506 <_vfiprintf_r+0x11a>
 80025ba:	2300      	movs	r3, #0
 80025bc:	f04f 0c0a 	mov.w	ip, #10
 80025c0:	4619      	mov	r1, r3
 80025c2:	3401      	adds	r4, #1
 80025c4:	9305      	str	r3, [sp, #20]
 80025c6:	4620      	mov	r0, r4
 80025c8:	f810 2b01 	ldrb.w	r2, [r0], #1
 80025cc:	3a30      	subs	r2, #48	; 0x30
 80025ce:	2a09      	cmp	r2, #9
 80025d0:	d903      	bls.n	80025da <_vfiprintf_r+0x1ee>
 80025d2:	2b00      	cmp	r3, #0
 80025d4:	d0c5      	beq.n	8002562 <_vfiprintf_r+0x176>
 80025d6:	9105      	str	r1, [sp, #20]
 80025d8:	e7c3      	b.n	8002562 <_vfiprintf_r+0x176>
 80025da:	4604      	mov	r4, r0
 80025dc:	2301      	movs	r3, #1
 80025de:	fb0c 2101 	mla	r1, ip, r1, r2
 80025e2:	e7f0      	b.n	80025c6 <_vfiprintf_r+0x1da>
 80025e4:	ab03      	add	r3, sp, #12
 80025e6:	9300      	str	r3, [sp, #0]
 80025e8:	462a      	mov	r2, r5
 80025ea:	4630      	mov	r0, r6
 80025ec:	4b16      	ldr	r3, [pc, #88]	; (8002648 <_vfiprintf_r+0x25c>)
 80025ee:	a904      	add	r1, sp, #16
 80025f0:	f3af 8000 	nop.w
 80025f4:	4607      	mov	r7, r0
 80025f6:	1c78      	adds	r0, r7, #1
 80025f8:	d1d6      	bne.n	80025a8 <_vfiprintf_r+0x1bc>
 80025fa:	6e6b      	ldr	r3, [r5, #100]	; 0x64
 80025fc:	07d9      	lsls	r1, r3, #31
 80025fe:	d405      	bmi.n	800260c <_vfiprintf_r+0x220>
 8002600:	89ab      	ldrh	r3, [r5, #12]
 8002602:	059a      	lsls	r2, r3, #22
 8002604:	d402      	bmi.n	800260c <_vfiprintf_r+0x220>
 8002606:	6da8      	ldr	r0, [r5, #88]	; 0x58
 8002608:	f000 fc43 	bl	8002e92 <__retarget_lock_release_recursive>
 800260c:	89ab      	ldrh	r3, [r5, #12]
 800260e:	065b      	lsls	r3, r3, #25
 8002610:	f53f af12 	bmi.w	8002438 <_vfiprintf_r+0x4c>
 8002614:	9809      	ldr	r0, [sp, #36]	; 0x24
 8002616:	e711      	b.n	800243c <_vfiprintf_r+0x50>
 8002618:	ab03      	add	r3, sp, #12
 800261a:	9300      	str	r3, [sp, #0]
 800261c:	462a      	mov	r2, r5
 800261e:	4630      	mov	r0, r6
 8002620:	4b09      	ldr	r3, [pc, #36]	; (8002648 <_vfiprintf_r+0x25c>)
 8002622:	a904      	add	r1, sp, #16
 8002624:	f000 f882 	bl	800272c <_printf_i>
 8002628:	e7e4      	b.n	80025f4 <_vfiprintf_r+0x208>
 800262a:	bf00      	nop
 800262c:	08003c10 	.word	0x08003c10
 8002630:	08003c30 	.word	0x08003c30
 8002634:	08003bf0 	.word	0x08003bf0
 8002638:	08003bba 	.word	0x08003bba
 800263c:	08003bc0 	.word	0x08003bc0
 8002640:	08003bc4 	.word	0x08003bc4
 8002644:	00000000 	.word	0x00000000
 8002648:	080023c7 	.word	0x080023c7

0800264c <_printf_common>:
 800264c:	e92d 47f0 	stmdb	sp!, {r4, r5, r6, r7, r8, r9, sl, lr}
 8002650:	4616      	mov	r6, r2
 8002652:	4699      	mov	r9, r3
 8002654:	688a      	ldr	r2, [r1, #8]
 8002656:	690b      	ldr	r3, [r1, #16]
 8002658:	4607      	mov	r7, r0
 800265a:	4293      	cmp	r3, r2
 800265c:	bfb8      	it	lt
 800265e:	4613      	movlt	r3, r2
 8002660:	6033      	str	r3, [r6, #0]
 8002662:	f891 2043 	ldrb.w	r2, [r1, #67]	; 0x43
 8002666:	460c      	mov	r4, r1
 8002668:	f8dd 8020 	ldr.w	r8, [sp, #32]
 800266c:	b10a      	cbz	r2, 8002672 <_printf_common+0x26>
 800266e:	3301      	adds	r3, #1
 8002670:	6033      	str	r3, [r6, #0]
 8002672:	6823      	ldr	r3, [r4, #0]
 8002674:	0699      	lsls	r1, r3, #26
 8002676:	bf42      	ittt	mi
 8002678:	6833      	ldrmi	r3, [r6, #0]
 800267a:	3302      	addmi	r3, #2
 800267c:	6033      	strmi	r3, [r6, #0]
 800267e:	6825      	ldr	r5, [r4, #0]
 8002680:	f015 0506 	ands.w	r5, r5, #6
 8002684:	d106      	bne.n	8002694 <_printf_common+0x48>
 8002686:	f104 0a19 	add.w	sl, r4, #25
 800268a:	68e3      	ldr	r3, [r4, #12]
 800268c:	6832      	ldr	r2, [r6, #0]
 800268e:	1a9b      	subs	r3, r3, r2
 8002690:	42ab      	cmp	r3, r5
 8002692:	dc28      	bgt.n	80026e6 <_printf_common+0x9a>
 8002694:	f894 2043 	ldrb.w	r2, [r4, #67]	; 0x43
 8002698:	1e13      	subs	r3, r2, #0
 800269a:	6822      	ldr	r2, [r4, #0]
 800269c:	bf18      	it	ne
 800269e:	2301      	movne	r3, #1
 80026a0:	0692      	lsls	r2, r2, #26
 80026a2:	d42d      	bmi.n	8002700 <_printf_common+0xb4>
 80026a4:	4649      	mov	r1, r9
 80026a6:	4638      	mov	r0, r7
 80026a8:	f104 0243 	add.w	r2, r4, #67	; 0x43
 80026ac:	47c0      	blx	r8
 80026ae:	3001      	adds	r0, #1
 80026b0:	d020      	beq.n	80026f4 <_printf_common+0xa8>
 80026b2:	6823      	ldr	r3, [r4, #0]
 80026b4:	68e5      	ldr	r5, [r4, #12]
 80026b6:	f003 0306 	and.w	r3, r3, #6
 80026ba:	2b04      	cmp	r3, #4
 80026bc:	bf18      	it	ne
 80026be:	2500      	movne	r5, #0
 80026c0:	6832      	ldr	r2, [r6, #0]
 80026c2:	f04f 0600 	mov.w	r6, #0
 80026c6:	68a3      	ldr	r3, [r4, #8]
 80026c8:	bf08      	it	eq
 80026ca:	1aad      	subeq	r5, r5, r2
 80026cc:	6922      	ldr	r2, [r4, #16]
 80026ce:	bf08      	it	eq
 80026d0:	ea25 75e5 	biceq.w	r5, r5, r5, asr #31
 80026d4:	4293      	cmp	r3, r2
 80026d6:	bfc4      	itt	gt
 80026d8:	1a9b      	subgt	r3, r3, r2
 80026da:	18ed      	addgt	r5, r5, r3
 80026dc:	341a      	adds	r4, #26
 80026de:	42b5      	cmp	r5, r6
 80026e0:	d11a      	bne.n	8002718 <_printf_common+0xcc>
 80026e2:	2000      	movs	r0, #0
 80026e4:	e008      	b.n	80026f8 <_printf_common+0xac>
 80026e6:	2301      	movs	r3, #1
 80026e8:	4652      	mov	r2, sl
 80026ea:	4649      	mov	r1, r9
 80026ec:	4638      	mov	r0, r7
 80026ee:	47c0      	blx	r8
 80026f0:	3001      	adds	r0, #1
 80026f2:	d103      	bne.n	80026fc <_printf_common+0xb0>
 80026f4:	f04f 30ff 	mov.w	r0, #4294967295
 80026f8:	e8bd 87f0 	ldmia.w	sp!, {r4, r5, r6, r7, r8, r9, sl, pc}
 80026fc:	3501      	adds	r5, #1
 80026fe:	e7c4      	b.n	800268a <_printf_common+0x3e>
 8002700:	2030      	movs	r0, #48	; 0x30
 8002702:	18e1      	adds	r1, r4, r3
 8002704:	f881 0043 	strb.w	r0, [r1, #67]	; 0x43
 8002708:	1c5a      	adds	r2, r3, #1
 800270a:	f894 1045 	ldrb.w	r1, [r4, #69]	; 0x45
 800270e:	4422      	add	r2, r4
 8002710:	3302      	adds	r3, #2
 8002712:	f882 1043 	strb.w	r1, [r2, #67]	; 0x43
 8002716:	e7c5      	b.n	80026a4 <_printf_common+0x58>
 8002718:	2301      	movs	r3, #1
 800271a:	4622      	mov	r2, r4
 800271c:	4649      	mov	r1, r9
 800271e:	4638      	mov	r0, r7
 8002720:	47c0      	blx	r8
 8002722:	3001      	adds	r0, #1
 8002724:	d0e6      	beq.n	80026f4 <_printf_common+0xa8>
 8002726:	3601      	adds	r6, #1
 8002728:	e7d9      	b.n	80026de <_printf_common+0x92>
	...

0800272c <_printf_i>:
 800272c:	e92d 47ff 	stmdb	sp!, {r0, r1, r2, r3, r4, r5, r6, r7, r8, r9, sl, lr}
 8002730:	7e0f      	ldrb	r7, [r1, #24]
 8002732:	4691      	mov	r9, r2
 8002734:	2f78      	cmp	r7, #120	; 0x78
 8002736:	4680      	mov	r8, r0
 8002738:	460c      	mov	r4, r1
 800273a:	469a      	mov	sl, r3
 800273c:	9d0c      	ldr	r5, [sp, #48]	; 0x30
 800273e:	f101 0243 	add.w	r2, r1, #67	; 0x43
 8002742:	d807      	bhi.n	8002754 <_printf_i+0x28>
 8002744:	2f62      	cmp	r7, #98	; 0x62
 8002746:	d80a      	bhi.n	800275e <_printf_i+0x32>
 8002748:	2f00      	cmp	r7, #0
 800274a:	f000 80d9 	beq.w	8002900 <_printf_i+0x1d4>
 800274e:	2f58      	cmp	r7, #88	; 0x58
 8002750:	f000 80a4 	beq.w	800289c <_printf_i+0x170>
 8002754:	f104 0542 	add.w	r5, r4, #66	; 0x42
 8002758:	f884 7042 	strb.w	r7, [r4, #66]	; 0x42
 800275c:	e03a      	b.n	80027d4 <_printf_i+0xa8>
 800275e:	f1a7 0363 	sub.w	r3, r7, #99	; 0x63
 8002762:	2b15      	cmp	r3, #21
 8002764:	d8f6      	bhi.n	8002754 <_printf_i+0x28>
 8002766:	a101      	add	r1, pc, #4	; (adr r1, 800276c <_printf_i+0x40>)
 8002768:	f851 f023 	ldr.w	pc, [r1, r3, lsl #2]
 800276c:	080027c5 	.word	0x080027c5
 8002770:	080027d9 	.word	0x080027d9
 8002774:	08002755 	.word	0x08002755
 8002778:	08002755 	.word	0x08002755
 800277c:	08002755 	.word	0x08002755
 8002780:	08002755 	.word	0x08002755
 8002784:	080027d9 	.word	0x080027d9
 8002788:	08002755 	.word	0x08002755
 800278c:	08002755 	.word	0x08002755
 8002790:	08002755 	.word	0x08002755
 8002794:	08002755 	.word	0x08002755
 8002798:	080028e7 	.word	0x080028e7
 800279c:	08002809 	.word	0x08002809
 80027a0:	080028c9 	.word	0x080028c9
 80027a4:	08002755 	.word	0x08002755
 80027a8:	08002755 	.word	0x08002755
 80027ac:	08002909 	.word	0x08002909
 80027b0:	08002755 	.word	0x08002755
 80027b4:	08002809 	.word	0x08002809
 80027b8:	08002755 	.word	0x08002755
 80027bc:	08002755 	.word	0x08002755
 80027c0:	080028d1 	.word	0x080028d1
 80027c4:	682b      	ldr	r3, [r5, #0]
 80027c6:	1d1a      	adds	r2, r3, #4
 80027c8:	681b      	ldr	r3, [r3, #0]
 80027ca:	602a      	str	r2, [r5, #0]
 80027cc:	f104 0542 	add.w	r5, r4, #66	; 0x42
 80027d0:	f884 3042 	strb.w	r3, [r4, #66]	; 0x42
 80027d4:	2301      	movs	r3, #1
 80027d6:	e0a4      	b.n	8002922 <_printf_i+0x1f6>
 80027d8:	6820      	ldr	r0, [r4, #0]
 80027da:	6829      	ldr	r1, [r5, #0]
 80027dc:	0606      	lsls	r6, r0, #24
 80027de:	f101 0304 	add.w	r3, r1, #4
 80027e2:	d50a      	bpl.n	80027fa <_printf_i+0xce>
 80027e4:	680e      	ldr	r6, [r1, #0]
 80027e6:	602b      	str	r3, [r5, #0]
 80027e8:	2e00      	cmp	r6, #0
 80027ea:	da03      	bge.n	80027f4 <_printf_i+0xc8>
 80027ec:	232d      	movs	r3, #45	; 0x2d
 80027ee:	4276      	negs	r6, r6
 80027f0:	f884 3043 	strb.w	r3, [r4, #67]	; 0x43
 80027f4:	230a      	movs	r3, #10
 80027f6:	485e      	ldr	r0, [pc, #376]	; (8002970 <_printf_i+0x244>)
 80027f8:	e019      	b.n	800282e <_printf_i+0x102>
 80027fa:	680e      	ldr	r6, [r1, #0]
 80027fc:	f010 0f40 	tst.w	r0, #64	; 0x40
 8002800:	602b      	str	r3, [r5, #0]
 8002802:	bf18      	it	ne
 8002804:	b236      	sxthne	r6, r6
 8002806:	e7ef      	b.n	80027e8 <_printf_i+0xbc>
 8002808:	682b      	ldr	r3, [r5, #0]
 800280a:	6820      	ldr	r0, [r4, #0]
 800280c:	1d19      	adds	r1, r3, #4
 800280e:	6029      	str	r1, [r5, #0]
 8002810:	0601      	lsls	r1, r0, #24
 8002812:	d501      	bpl.n	8002818 <_printf_i+0xec>
 8002814:	681e      	ldr	r6, [r3, #0]
 8002816:	e002      	b.n	800281e <_printf_i+0xf2>
 8002818:	0646      	lsls	r6, r0, #25
 800281a:	d5fb      	bpl.n	8002814 <_printf_i+0xe8>
 800281c:	881e      	ldrh	r6, [r3, #0]
 800281e:	2f6f      	cmp	r7, #111	; 0x6f
 8002820:	bf0c      	ite	eq
 8002822:	2308      	moveq	r3, #8
 8002824:	230a      	movne	r3, #10
 8002826:	4852      	ldr	r0, [pc, #328]	; (8002970 <_printf_i+0x244>)
 8002828:	2100      	movs	r1, #0
 800282a:	f884 1043 	strb.w	r1, [r4, #67]	; 0x43
 800282e:	6865      	ldr	r5, [r4, #4]
 8002830:	2d00      	cmp	r5, #0
 8002832:	bfa8      	it	ge
 8002834:	6821      	ldrge	r1, [r4, #0]
 8002836:	60a5      	str	r5, [r4, #8]
 8002838:	bfa4      	itt	ge
 800283a:	f021 0104 	bicge.w	r1, r1, #4
 800283e:	6021      	strge	r1, [r4, #0]
 8002840:	b90e      	cbnz	r6, 8002846 <_printf_i+0x11a>
 8002842:	2d00      	cmp	r5, #0
 8002844:	d04d      	beq.n	80028e2 <_printf_i+0x1b6>
 8002846:	4615      	mov	r5, r2
 8002848:	fbb6 f1f3 	udiv	r1, r6, r3
 800284c:	fb03 6711 	mls	r7, r3, r1, r6
 8002850:	5dc7      	ldrb	r7, [r0, r7]
 8002852:	f805 7d01 	strb.w	r7, [r5, #-1]!
 8002856:	4637      	mov	r7, r6
 8002858:	42bb      	cmp	r3, r7
 800285a:	460e      	mov	r6, r1
 800285c:	d9f4      	bls.n	8002848 <_printf_i+0x11c>
 800285e:	2b08      	cmp	r3, #8
 8002860:	d10b      	bne.n	800287a <_printf_i+0x14e>
 8002862:	6823      	ldr	r3, [r4, #0]
 8002864:	07de      	lsls	r6, r3, #31
 8002866:	d508      	bpl.n	800287a <_printf_i+0x14e>
 8002868:	6923      	ldr	r3, [r4, #16]
 800286a:	6861      	ldr	r1, [r4, #4]
 800286c:	4299      	cmp	r1, r3
 800286e:	bfde      	ittt	le
 8002870:	2330      	movle	r3, #48	; 0x30
 8002872:	f805 3c01 	strble.w	r3, [r5, #-1]
 8002876:	f105 35ff 	addle.w	r5, r5, #4294967295
 800287a:	1b52      	subs	r2, r2, r5
 800287c:	6122      	str	r2, [r4, #16]
 800287e:	464b      	mov	r3, r9
 8002880:	4621      	mov	r1, r4
 8002882:	4640      	mov	r0, r8
 8002884:	f8cd a000 	str.w	sl, [sp]
 8002888:	aa03      	add	r2, sp, #12
 800288a:	f7ff fedf 	bl	800264c <_printf_common>
 800288e:	3001      	adds	r0, #1
 8002890:	d14c      	bne.n	800292c <_printf_i+0x200>
 8002892:	f04f 30ff 	mov.w	r0, #4294967295
 8002896:	b004      	add	sp, #16
 8002898:	e8bd 87f0 	ldmia.w	sp!, {r4, r5, r6, r7, r8, r9, sl, pc}
 800289c:	4834      	ldr	r0, [pc, #208]	; (8002970 <_printf_i+0x244>)
 800289e:	f881 7045 	strb.w	r7, [r1, #69]	; 0x45
 80028a2:	6829      	ldr	r1, [r5, #0]
 80028a4:	6823      	ldr	r3, [r4, #0]
 80028a6:	f851 6b04 	ldr.w	r6, [r1], #4
 80028aa:	6029      	str	r1, [r5, #0]
 80028ac:	061d      	lsls	r5, r3, #24
 80028ae:	d514      	bpl.n	80028da <_printf_i+0x1ae>
 80028b0:	07df      	lsls	r7, r3, #31
 80028b2:	bf44      	itt	mi
 80028b4:	f043 0320 	orrmi.w	r3, r3, #32
 80028b8:	6023      	strmi	r3, [r4, #0]
 80028ba:	b91e      	cbnz	r6, 80028c4 <_printf_i+0x198>
 80028bc:	6823      	ldr	r3, [r4, #0]
 80028be:	f023 0320 	bic.w	r3, r3, #32
 80028c2:	6023      	str	r3, [r4, #0]
 80028c4:	2310      	movs	r3, #16
 80028c6:	e7af      	b.n	8002828 <_printf_i+0xfc>
 80028c8:	6823      	ldr	r3, [r4, #0]
 80028ca:	f043 0320 	orr.w	r3, r3, #32
 80028ce:	6023      	str	r3, [r4, #0]
 80028d0:	2378      	movs	r3, #120	; 0x78
 80028d2:	4828      	ldr	r0, [pc, #160]	; (8002974 <_printf_i+0x248>)
 80028d4:	f884 3045 	strb.w	r3, [r4, #69]	; 0x45
 80028d8:	e7e3      	b.n	80028a2 <_printf_i+0x176>
 80028da:	0659      	lsls	r1, r3, #25
 80028dc:	bf48      	it	mi
 80028de:	b2b6      	uxthmi	r6, r6
 80028e0:	e7e6      	b.n	80028b0 <_printf_i+0x184>
 80028e2:	4615      	mov	r5, r2
 80028e4:	e7bb      	b.n	800285e <_printf_i+0x132>
 80028e6:	682b      	ldr	r3, [r5, #0]
 80028e8:	6826      	ldr	r6, [r4, #0]
 80028ea:	1d18      	adds	r0, r3, #4
 80028ec:	6961      	ldr	r1, [r4, #20]
 80028ee:	6028      	str	r0, [r5, #0]
 80028f0:	0635      	lsls	r5, r6, #24
 80028f2:	681b      	ldr	r3, [r3, #0]
 80028f4:	d501      	bpl.n	80028fa <_printf_i+0x1ce>
 80028f6:	6019      	str	r1, [r3, #0]
 80028f8:	e002      	b.n	8002900 <_printf_i+0x1d4>
 80028fa:	0670      	lsls	r0, r6, #25
 80028fc:	d5fb      	bpl.n	80028f6 <_printf_i+0x1ca>
 80028fe:	8019      	strh	r1, [r3, #0]
 8002900:	2300      	movs	r3, #0
 8002902:	4615      	mov	r5, r2
 8002904:	6123      	str	r3, [r4, #16]
 8002906:	e7ba      	b.n	800287e <_printf_i+0x152>
 8002908:	682b      	ldr	r3, [r5, #0]
 800290a:	2100      	movs	r1, #0
 800290c:	1d1a      	adds	r2, r3, #4
 800290e:	602a      	str	r2, [r5, #0]
 8002910:	681d      	ldr	r5, [r3, #0]
 8002912:	6862      	ldr	r2, [r4, #4]
 8002914:	4628      	mov	r0, r5
 8002916:	f000 fb23 	bl	8002f60 <memchr>
 800291a:	b108      	cbz	r0, 8002920 <_printf_i+0x1f4>
 800291c:	1b40      	subs	r0, r0, r5
 800291e:	6060      	str	r0, [r4, #4]
 8002920:	6863      	ldr	r3, [r4, #4]
 8002922:	6123      	str	r3, [r4, #16]
 8002924:	2300      	movs	r3, #0
 8002926:	f884 3043 	strb.w	r3, [r4, #67]	; 0x43
 800292a:	e7a8      	b.n	800287e <_printf_i+0x152>
 800292c:	462a      	mov	r2, r5
 800292e:	4649      	mov	r1, r9
 8002930:	4640      	mov	r0, r8
 8002932:	6923      	ldr	r3, [r4, #16]
 8002934:	47d0      	blx	sl
 8002936:	3001      	adds	r0, #1
 8002938:	d0ab      	beq.n	8002892 <_printf_i+0x166>
 800293a:	6823      	ldr	r3, [r4, #0]
 800293c:	079b      	lsls	r3, r3, #30
 800293e:	d413      	bmi.n	8002968 <_printf_i+0x23c>
 8002940:	68e0      	ldr	r0, [r4, #12]
 8002942:	9b03      	ldr	r3, [sp, #12]
 8002944:	4298      	cmp	r0, r3
 8002946:	bfb8      	it	lt
 8002948:	4618      	movlt	r0, r3
 800294a:	e7a4      	b.n	8002896 <_printf_i+0x16a>
 800294c:	2301      	movs	r3, #1
 800294e:	4632      	mov	r2, r6
 8002950:	4649      	mov	r1, r9
 8002952:	4640      	mov	r0, r8
 8002954:	47d0      	blx	sl
 8002956:	3001      	adds	r0, #1
 8002958:	d09b      	beq.n	8002892 <_printf_i+0x166>
 800295a:	3501      	adds	r5, #1
 800295c:	68e3      	ldr	r3, [r4, #12]
 800295e:	9903      	ldr	r1, [sp, #12]
 8002960:	1a5b      	subs	r3, r3, r1
 8002962:	42ab      	cmp	r3, r5
 8002964:	dcf2      	bgt.n	800294c <_printf_i+0x220>
 8002966:	e7eb      	b.n	8002940 <_printf_i+0x214>
 8002968:	2500      	movs	r5, #0
 800296a:	f104 0619 	add.w	r6, r4, #25
 800296e:	e7f5      	b.n	800295c <_printf_i+0x230>
 8002970:	08003bcb 	.word	0x08003bcb
 8002974:	08003bdc 	.word	0x08003bdc

08002978 <_sbrk_r>:
 8002978:	b538      	push	{r3, r4, r5, lr}
 800297a:	2300      	movs	r3, #0
 800297c:	4d05      	ldr	r5, [pc, #20]	; (8002994 <_sbrk_r+0x1c>)
 800297e:	4604      	mov	r4, r0
 8002980:	4608      	mov	r0, r1
 8002982:	602b      	str	r3, [r5, #0]
 8002984:	f7fe f966 	bl	8000c54 <_sbrk>
 8002988:	1c43      	adds	r3, r0, #1
 800298a:	d102      	bne.n	8002992 <_sbrk_r+0x1a>
 800298c:	682b      	ldr	r3, [r5, #0]
 800298e:	b103      	cbz	r3, 8002992 <_sbrk_r+0x1a>
 8002990:	6023      	str	r3, [r4, #0]
 8002992:	bd38      	pop	{r3, r4, r5, pc}
 8002994:	20000264 	.word	0x20000264

08002998 <__swbuf_r>:
 8002998:	b5f8      	push	{r3, r4, r5, r6, r7, lr}
 800299a:	460e      	mov	r6, r1
 800299c:	4614      	mov	r4, r2
 800299e:	4605      	mov	r5, r0
 80029a0:	b118      	cbz	r0, 80029aa <__swbuf_r+0x12>
 80029a2:	6983      	ldr	r3, [r0, #24]
 80029a4:	b90b      	cbnz	r3, 80029aa <__swbuf_r+0x12>
 80029a6:	f000 f9d5 	bl	8002d54 <__sinit>
 80029aa:	4b21      	ldr	r3, [pc, #132]	; (8002a30 <__swbuf_r+0x98>)
 80029ac:	429c      	cmp	r4, r3
 80029ae:	d12b      	bne.n	8002a08 <__swbuf_r+0x70>
 80029b0:	686c      	ldr	r4, [r5, #4]
 80029b2:	69a3      	ldr	r3, [r4, #24]
 80029b4:	60a3      	str	r3, [r4, #8]
 80029b6:	89a3      	ldrh	r3, [r4, #12]
 80029b8:	071a      	lsls	r2, r3, #28
 80029ba:	d52f      	bpl.n	8002a1c <__swbuf_r+0x84>
 80029bc:	6923      	ldr	r3, [r4, #16]
 80029be:	b36b      	cbz	r3, 8002a1c <__swbuf_r+0x84>
 80029c0:	6923      	ldr	r3, [r4, #16]
 80029c2:	6820      	ldr	r0, [r4, #0]
 80029c4:	b2f6      	uxtb	r6, r6
 80029c6:	1ac0      	subs	r0, r0, r3
 80029c8:	6963      	ldr	r3, [r4, #20]
 80029ca:	4637      	mov	r7, r6
 80029cc:	4283      	cmp	r3, r0
 80029ce:	dc04      	bgt.n	80029da <__swbuf_r+0x42>
 80029d0:	4621      	mov	r1, r4
 80029d2:	4628      	mov	r0, r5
 80029d4:	f000 f92a 	bl	8002c2c <_fflush_r>
 80029d8:	bb30      	cbnz	r0, 8002a28 <__swbuf_r+0x90>
 80029da:	68a3      	ldr	r3, [r4, #8]
 80029dc:	3001      	adds	r0, #1
 80029de:	3b01      	subs	r3, #1
 80029e0:	60a3      	str	r3, [r4, #8]
 80029e2:	6823      	ldr	r3, [r4, #0]
 80029e4:	1c5a      	adds	r2, r3, #1
 80029e6:	6022      	str	r2, [r4, #0]
 80029e8:	701e      	strb	r6, [r3, #0]
 80029ea:	6963      	ldr	r3, [r4, #20]
 80029ec:	4283      	cmp	r3, r0
 80029ee:	d004      	beq.n	80029fa <__swbuf_r+0x62>
 80029f0:	89a3      	ldrh	r3, [r4, #12]
 80029f2:	07db      	lsls	r3, r3, #31
 80029f4:	d506      	bpl.n	8002a04 <__swbuf_r+0x6c>
 80029f6:	2e0a      	cmp	r6, #10
 80029f8:	d104      	bne.n	8002a04 <__swbuf_r+0x6c>
 80029fa:	4621      	mov	r1, r4
 80029fc:	4628      	mov	r0, r5
 80029fe:	f000 f915 	bl	8002c2c <_fflush_r>
 8002a02:	b988      	cbnz	r0, 8002a28 <__swbuf_r+0x90>
 8002a04:	4638      	mov	r0, r7
 8002a06:	bdf8      	pop	{r3, r4, r5, r6, r7, pc}
 8002a08:	4b0a      	ldr	r3, [pc, #40]	; (8002a34 <__swbuf_r+0x9c>)
 8002a0a:	429c      	cmp	r4, r3
 8002a0c:	d101      	bne.n	8002a12 <__swbuf_r+0x7a>
 8002a0e:	68ac      	ldr	r4, [r5, #8]
 8002a10:	e7cf      	b.n	80029b2 <__swbuf_r+0x1a>
 8002a12:	4b09      	ldr	r3, [pc, #36]	; (8002a38 <__swbuf_r+0xa0>)
 8002a14:	429c      	cmp	r4, r3
 8002a16:	bf08      	it	eq
 8002a18:	68ec      	ldreq	r4, [r5, #12]
 8002a1a:	e7ca      	b.n	80029b2 <__swbuf_r+0x1a>
 8002a1c:	4621      	mov	r1, r4
 8002a1e:	4628      	mov	r0, r5
 8002a20:	f000 f80c 	bl	8002a3c <__swsetup_r>
 8002a24:	2800      	cmp	r0, #0
 8002a26:	d0cb      	beq.n	80029c0 <__swbuf_r+0x28>
 8002a28:	f04f 37ff 	mov.w	r7, #4294967295
 8002a2c:	e7ea      	b.n	8002a04 <__swbuf_r+0x6c>
 8002a2e:	bf00      	nop
 8002a30:	08003c10 	.word	0x08003c10
 8002a34:	08003c30 	.word	0x08003c30
 8002a38:	08003bf0 	.word	0x08003bf0

08002a3c <__swsetup_r>:
 8002a3c:	4b32      	ldr	r3, [pc, #200]	; (8002b08 <__swsetup_r+0xcc>)
 8002a3e:	b570      	push	{r4, r5, r6, lr}
 8002a40:	681d      	ldr	r5, [r3, #0]
 8002a42:	4606      	mov	r6, r0
 8002a44:	460c      	mov	r4, r1
 8002a46:	b125      	cbz	r5, 8002a52 <__swsetup_r+0x16>
 8002a48:	69ab      	ldr	r3, [r5, #24]
 8002a4a:	b913      	cbnz	r3, 8002a52 <__swsetup_r+0x16>
 8002a4c:	4628      	mov	r0, r5
 8002a4e:	f000 f981 	bl	8002d54 <__sinit>
 8002a52:	4b2e      	ldr	r3, [pc, #184]	; (8002b0c <__swsetup_r+0xd0>)
 8002a54:	429c      	cmp	r4, r3
 8002a56:	d10f      	bne.n	8002a78 <__swsetup_r+0x3c>
 8002a58:	686c      	ldr	r4, [r5, #4]
 8002a5a:	89a3      	ldrh	r3, [r4, #12]
 8002a5c:	f9b4 200c 	ldrsh.w	r2, [r4, #12]
 8002a60:	0719      	lsls	r1, r3, #28
 8002a62:	d42c      	bmi.n	8002abe <__swsetup_r+0x82>
 8002a64:	06dd      	lsls	r5, r3, #27
 8002a66:	d411      	bmi.n	8002a8c <__swsetup_r+0x50>
 8002a68:	2309      	movs	r3, #9
 8002a6a:	6033      	str	r3, [r6, #0]
 8002a6c:	f042 0340 	orr.w	r3, r2, #64	; 0x40
 8002a70:	f04f 30ff 	mov.w	r0, #4294967295
 8002a74:	81a3      	strh	r3, [r4, #12]
 8002a76:	e03e      	b.n	8002af6 <__swsetup_r+0xba>
 8002a78:	4b25      	ldr	r3, [pc, #148]	; (8002b10 <__swsetup_r+0xd4>)
 8002a7a:	429c      	cmp	r4, r3
 8002a7c:	d101      	bne.n	8002a82 <__swsetup_r+0x46>
 8002a7e:	68ac      	ldr	r4, [r5, #8]
 8002a80:	e7eb      	b.n	8002a5a <__swsetup_r+0x1e>
 8002a82:	4b24      	ldr	r3, [pc, #144]	; (8002b14 <__swsetup_r+0xd8>)
 8002a84:	429c      	cmp	r4, r3
 8002a86:	bf08      	it	eq
 8002a88:	68ec      	ldreq	r4, [r5, #12]
 8002a8a:	e7e6      	b.n	8002a5a <__swsetup_r+0x1e>
 8002a8c:	0758      	lsls	r0, r3, #29
 8002a8e:	d512      	bpl.n	8002ab6 <__swsetup_r+0x7a>
 8002a90:	6b61      	ldr	r1, [r4, #52]	; 0x34
 8002a92:	b141      	cbz	r1, 8002aa6 <__swsetup_r+0x6a>
 8002a94:	f104 0344 	add.w	r3, r4, #68	; 0x44
 8002a98:	4299      	cmp	r1, r3
 8002a9a:	d002      	beq.n	8002aa2 <__swsetup_r+0x66>
 8002a9c:	4630      	mov	r0, r6
 8002a9e:	f7ff fa45 	bl	8001f2c <_free_r>
 8002aa2:	2300      	movs	r3, #0
 8002aa4:	6363      	str	r3, [r4, #52]	; 0x34
 8002aa6:	89a3      	ldrh	r3, [r4, #12]
 8002aa8:	f023 0324 	bic.w	r3, r3, #36	; 0x24
 8002aac:	81a3      	strh	r3, [r4, #12]
 8002aae:	2300      	movs	r3, #0
 8002ab0:	6063      	str	r3, [r4, #4]
 8002ab2:	6923      	ldr	r3, [r4, #16]
 8002ab4:	6023      	str	r3, [r4, #0]
 8002ab6:	89a3      	ldrh	r3, [r4, #12]
 8002ab8:	f043 0308 	orr.w	r3, r3, #8
 8002abc:	81a3      	strh	r3, [r4, #12]
 8002abe:	6923      	ldr	r3, [r4, #16]
 8002ac0:	b94b      	cbnz	r3, 8002ad6 <__swsetup_r+0x9a>
 8002ac2:	89a3      	ldrh	r3, [r4, #12]
 8002ac4:	f403 7320 	and.w	r3, r3, #640	; 0x280
 8002ac8:	f5b3 7f00 	cmp.w	r3, #512	; 0x200
 8002acc:	d003      	beq.n	8002ad6 <__swsetup_r+0x9a>
 8002ace:	4621      	mov	r1, r4
 8002ad0:	4630      	mov	r0, r6
 8002ad2:	f000 fa05 	bl	8002ee0 <__smakebuf_r>
 8002ad6:	89a0      	ldrh	r0, [r4, #12]
 8002ad8:	f9b4 200c 	ldrsh.w	r2, [r4, #12]
 8002adc:	f010 0301 	ands.w	r3, r0, #1
 8002ae0:	d00a      	beq.n	8002af8 <__swsetup_r+0xbc>
 8002ae2:	2300      	movs	r3, #0
 8002ae4:	60a3      	str	r3, [r4, #8]
 8002ae6:	6963      	ldr	r3, [r4, #20]
 8002ae8:	425b      	negs	r3, r3
 8002aea:	61a3      	str	r3, [r4, #24]
 8002aec:	6923      	ldr	r3, [r4, #16]
 8002aee:	b943      	cbnz	r3, 8002b02 <__swsetup_r+0xc6>
 8002af0:	f010 0080 	ands.w	r0, r0, #128	; 0x80
 8002af4:	d1ba      	bne.n	8002a6c <__swsetup_r+0x30>
 8002af6:	bd70      	pop	{r4, r5, r6, pc}
 8002af8:	0781      	lsls	r1, r0, #30
 8002afa:	bf58      	it	pl
 8002afc:	6963      	ldrpl	r3, [r4, #20]
 8002afe:	60a3      	str	r3, [r4, #8]
 8002b00:	e7f4      	b.n	8002aec <__swsetup_r+0xb0>
 8002b02:	2000      	movs	r0, #0
 8002b04:	e7f7      	b.n	8002af6 <__swsetup_r+0xba>
 8002b06:	bf00      	nop
 8002b08:	20000050 	.word	0x20000050
 8002b0c:	08003c10 	.word	0x08003c10
 8002b10:	08003c30 	.word	0x08003c30
 8002b14:	08003bf0 	.word	0x08003bf0

08002b18 <abort>:
 8002b18:	2006      	movs	r0, #6
 8002b1a:	b508      	push	{r3, lr}
 8002b1c:	f000 faba 	bl	8003094 <raise>
 8002b20:	2001      	movs	r0, #1
 8002b22:	f7fe f869 	bl	8000bf8 <_exit>
	...

08002b28 <__sflush_r>:
 8002b28:	898a      	ldrh	r2, [r1, #12]
 8002b2a:	b5f8      	push	{r3, r4, r5, r6, r7, lr}
 8002b2c:	4605      	mov	r5, r0
 8002b2e:	0710      	lsls	r0, r2, #28
 8002b30:	460c      	mov	r4, r1
 8002b32:	d457      	bmi.n	8002be4 <__sflush_r+0xbc>
 8002b34:	684b      	ldr	r3, [r1, #4]
 8002b36:	2b00      	cmp	r3, #0
 8002b38:	dc04      	bgt.n	8002b44 <__sflush_r+0x1c>
 8002b3a:	6c0b      	ldr	r3, [r1, #64]	; 0x40
 8002b3c:	2b00      	cmp	r3, #0
 8002b3e:	dc01      	bgt.n	8002b44 <__sflush_r+0x1c>
 8002b40:	2000      	movs	r0, #0
 8002b42:	bdf8      	pop	{r3, r4, r5, r6, r7, pc}
 8002b44:	6ae6      	ldr	r6, [r4, #44]	; 0x2c
 8002b46:	2e00      	cmp	r6, #0
 8002b48:	d0fa      	beq.n	8002b40 <__sflush_r+0x18>
 8002b4a:	2300      	movs	r3, #0
 8002b4c:	f412 5280 	ands.w	r2, r2, #4096	; 0x1000
 8002b50:	682f      	ldr	r7, [r5, #0]
 8002b52:	602b      	str	r3, [r5, #0]
 8002b54:	d032      	beq.n	8002bbc <__sflush_r+0x94>
 8002b56:	6d60      	ldr	r0, [r4, #84]	; 0x54
 8002b58:	89a3      	ldrh	r3, [r4, #12]
 8002b5a:	075a      	lsls	r2, r3, #29
 8002b5c:	d505      	bpl.n	8002b6a <__sflush_r+0x42>
 8002b5e:	6863      	ldr	r3, [r4, #4]
 8002b60:	1ac0      	subs	r0, r0, r3
 8002b62:	6b63      	ldr	r3, [r4, #52]	; 0x34
 8002b64:	b10b      	cbz	r3, 8002b6a <__sflush_r+0x42>
 8002b66:	6c23      	ldr	r3, [r4, #64]	; 0x40
 8002b68:	1ac0      	subs	r0, r0, r3
 8002b6a:	2300      	movs	r3, #0
 8002b6c:	4602      	mov	r2, r0
 8002b6e:	6ae6      	ldr	r6, [r4, #44]	; 0x2c
 8002b70:	4628      	mov	r0, r5
 8002b72:	6a21      	ldr	r1, [r4, #32]
 8002b74:	47b0      	blx	r6
 8002b76:	1c43      	adds	r3, r0, #1
 8002b78:	89a3      	ldrh	r3, [r4, #12]
 8002b7a:	d106      	bne.n	8002b8a <__sflush_r+0x62>
 8002b7c:	6829      	ldr	r1, [r5, #0]
 8002b7e:	291d      	cmp	r1, #29
 8002b80:	d82c      	bhi.n	8002bdc <__sflush_r+0xb4>
 8002b82:	4a29      	ldr	r2, [pc, #164]	; (8002c28 <__sflush_r+0x100>)
 8002b84:	40ca      	lsrs	r2, r1
 8002b86:	07d6      	lsls	r6, r2, #31
 8002b88:	d528      	bpl.n	8002bdc <__sflush_r+0xb4>
 8002b8a:	2200      	movs	r2, #0
 8002b8c:	6062      	str	r2, [r4, #4]
 8002b8e:	6922      	ldr	r2, [r4, #16]
 8002b90:	04d9      	lsls	r1, r3, #19
 8002b92:	6022      	str	r2, [r4, #0]
 8002b94:	d504      	bpl.n	8002ba0 <__sflush_r+0x78>
 8002b96:	1c42      	adds	r2, r0, #1
 8002b98:	d101      	bne.n	8002b9e <__sflush_r+0x76>
 8002b9a:	682b      	ldr	r3, [r5, #0]
 8002b9c:	b903      	cbnz	r3, 8002ba0 <__sflush_r+0x78>
 8002b9e:	6560      	str	r0, [r4, #84]	; 0x54
 8002ba0:	6b61      	ldr	r1, [r4, #52]	; 0x34
 8002ba2:	602f      	str	r7, [r5, #0]
 8002ba4:	2900      	cmp	r1, #0
 8002ba6:	d0cb      	beq.n	8002b40 <__sflush_r+0x18>
 8002ba8:	f104 0344 	add.w	r3, r4, #68	; 0x44
 8002bac:	4299      	cmp	r1, r3
 8002bae:	d002      	beq.n	8002bb6 <__sflush_r+0x8e>
 8002bb0:	4628      	mov	r0, r5
 8002bb2:	f7ff f9bb 	bl	8001f2c <_free_r>
 8002bb6:	2000      	movs	r0, #0
 8002bb8:	6360      	str	r0, [r4, #52]	; 0x34
 8002bba:	e7c2      	b.n	8002b42 <__sflush_r+0x1a>
 8002bbc:	6a21      	ldr	r1, [r4, #32]
 8002bbe:	2301      	movs	r3, #1
 8002bc0:	4628      	mov	r0, r5
 8002bc2:	47b0      	blx	r6
 8002bc4:	1c41      	adds	r1, r0, #1
 8002bc6:	d1c7      	bne.n	8002b58 <__sflush_r+0x30>
 8002bc8:	682b      	ldr	r3, [r5, #0]
 8002bca:	2b00      	cmp	r3, #0
 8002bcc:	d0c4      	beq.n	8002b58 <__sflush_r+0x30>
 8002bce:	2b1d      	cmp	r3, #29
 8002bd0:	d001      	beq.n	8002bd6 <__sflush_r+0xae>
 8002bd2:	2b16      	cmp	r3, #22
 8002bd4:	d101      	bne.n	8002bda <__sflush_r+0xb2>
 8002bd6:	602f      	str	r7, [r5, #0]
 8002bd8:	e7b2      	b.n	8002b40 <__sflush_r+0x18>
 8002bda:	89a3      	ldrh	r3, [r4, #12]
 8002bdc:	f043 0340 	orr.w	r3, r3, #64	; 0x40
 8002be0:	81a3      	strh	r3, [r4, #12]
 8002be2:	e7ae      	b.n	8002b42 <__sflush_r+0x1a>
 8002be4:	690f      	ldr	r7, [r1, #16]
 8002be6:	2f00      	cmp	r7, #0
 8002be8:	d0aa      	beq.n	8002b40 <__sflush_r+0x18>
 8002bea:	0793      	lsls	r3, r2, #30
 8002bec:	bf18      	it	ne
 8002bee:	2300      	movne	r3, #0
 8002bf0:	680e      	ldr	r6, [r1, #0]
 8002bf2:	bf08      	it	eq
 8002bf4:	694b      	ldreq	r3, [r1, #20]
 8002bf6:	1bf6      	subs	r6, r6, r7
 8002bf8:	600f      	str	r7, [r1, #0]
 8002bfa:	608b      	str	r3, [r1, #8]
 8002bfc:	2e00      	cmp	r6, #0
 8002bfe:	dd9f      	ble.n	8002b40 <__sflush_r+0x18>
 8002c00:	4633      	mov	r3, r6
 8002c02:	463a      	mov	r2, r7
 8002c04:	4628      	mov	r0, r5
 8002c06:	6a21      	ldr	r1, [r4, #32]
 8002c08:	f8d4 c028 	ldr.w	ip, [r4, #40]	; 0x28
 8002c0c:	47e0      	blx	ip
 8002c0e:	2800      	cmp	r0, #0
 8002c10:	dc06      	bgt.n	8002c20 <__sflush_r+0xf8>
 8002c12:	89a3      	ldrh	r3, [r4, #12]
 8002c14:	f04f 30ff 	mov.w	r0, #4294967295
 8002c18:	f043 0340 	orr.w	r3, r3, #64	; 0x40
 8002c1c:	81a3      	strh	r3, [r4, #12]
 8002c1e:	e790      	b.n	8002b42 <__sflush_r+0x1a>
 8002c20:	4407      	add	r7, r0
 8002c22:	1a36      	subs	r6, r6, r0
 8002c24:	e7ea      	b.n	8002bfc <__sflush_r+0xd4>
 8002c26:	bf00      	nop
 8002c28:	20400001 	.word	0x20400001

08002c2c <_fflush_r>:
 8002c2c:	b538      	push	{r3, r4, r5, lr}
 8002c2e:	690b      	ldr	r3, [r1, #16]
 8002c30:	4605      	mov	r5, r0
 8002c32:	460c      	mov	r4, r1
 8002c34:	b913      	cbnz	r3, 8002c3c <_fflush_r+0x10>
 8002c36:	2500      	movs	r5, #0
 8002c38:	4628      	mov	r0, r5
 8002c3a:	bd38      	pop	{r3, r4, r5, pc}
 8002c3c:	b118      	cbz	r0, 8002c46 <_fflush_r+0x1a>
 8002c3e:	6983      	ldr	r3, [r0, #24]
 8002c40:	b90b      	cbnz	r3, 8002c46 <_fflush_r+0x1a>
 8002c42:	f000 f887 	bl	8002d54 <__sinit>
 8002c46:	4b14      	ldr	r3, [pc, #80]	; (8002c98 <_fflush_r+0x6c>)
 8002c48:	429c      	cmp	r4, r3
 8002c4a:	d11b      	bne.n	8002c84 <_fflush_r+0x58>
 8002c4c:	686c      	ldr	r4, [r5, #4]
 8002c4e:	f9b4 300c 	ldrsh.w	r3, [r4, #12]
 8002c52:	2b00      	cmp	r3, #0
 8002c54:	d0ef      	beq.n	8002c36 <_fflush_r+0xa>
 8002c56:	6e62      	ldr	r2, [r4, #100]	; 0x64
 8002c58:	07d0      	lsls	r0, r2, #31
 8002c5a:	d404      	bmi.n	8002c66 <_fflush_r+0x3a>
 8002c5c:	0599      	lsls	r1, r3, #22
 8002c5e:	d402      	bmi.n	8002c66 <_fflush_r+0x3a>
 8002c60:	6da0      	ldr	r0, [r4, #88]	; 0x58
 8002c62:	f000 f915 	bl	8002e90 <__retarget_lock_acquire_recursive>
 8002c66:	4628      	mov	r0, r5
 8002c68:	4621      	mov	r1, r4
 8002c6a:	f7ff ff5d 	bl	8002b28 <__sflush_r>
 8002c6e:	6e63      	ldr	r3, [r4, #100]	; 0x64
 8002c70:	4605      	mov	r5, r0
 8002c72:	07da      	lsls	r2, r3, #31
 8002c74:	d4e0      	bmi.n	8002c38 <_fflush_r+0xc>
 8002c76:	89a3      	ldrh	r3, [r4, #12]
 8002c78:	059b      	lsls	r3, r3, #22
 8002c7a:	d4dd      	bmi.n	8002c38 <_fflush_r+0xc>
 8002c7c:	6da0      	ldr	r0, [r4, #88]	; 0x58
 8002c7e:	f000 f908 	bl	8002e92 <__retarget_lock_release_recursive>
 8002c82:	e7d9      	b.n	8002c38 <_fflush_r+0xc>
 8002c84:	4b05      	ldr	r3, [pc, #20]	; (8002c9c <_fflush_r+0x70>)
 8002c86:	429c      	cmp	r4, r3
 8002c88:	d101      	bne.n	8002c8e <_fflush_r+0x62>
 8002c8a:	68ac      	ldr	r4, [r5, #8]
 8002c8c:	e7df      	b.n	8002c4e <_fflush_r+0x22>
 8002c8e:	4b04      	ldr	r3, [pc, #16]	; (8002ca0 <_fflush_r+0x74>)
 8002c90:	429c      	cmp	r4, r3
 8002c92:	bf08      	it	eq
 8002c94:	68ec      	ldreq	r4, [r5, #12]
 8002c96:	e7da      	b.n	8002c4e <_fflush_r+0x22>
 8002c98:	08003c10 	.word	0x08003c10
 8002c9c:	08003c30 	.word	0x08003c30
 8002ca0:	08003bf0 	.word	0x08003bf0

08002ca4 <std>:
 8002ca4:	2300      	movs	r3, #0
 8002ca6:	b510      	push	{r4, lr}
 8002ca8:	4604      	mov	r4, r0
 8002caa:	e9c0 3300 	strd	r3, r3, [r0]
 8002cae:	e9c0 3304 	strd	r3, r3, [r0, #16]
 8002cb2:	6083      	str	r3, [r0, #8]
 8002cb4:	8181      	strh	r1, [r0, #12]
 8002cb6:	6643      	str	r3, [r0, #100]	; 0x64
 8002cb8:	81c2      	strh	r2, [r0, #14]
 8002cba:	6183      	str	r3, [r0, #24]
 8002cbc:	4619      	mov	r1, r3
 8002cbe:	2208      	movs	r2, #8
 8002cc0:	305c      	adds	r0, #92	; 0x5c
 8002cc2:	f7ff f867 	bl	8001d94 <memset>
 8002cc6:	4b05      	ldr	r3, [pc, #20]	; (8002cdc <std+0x38>)
 8002cc8:	6224      	str	r4, [r4, #32]
 8002cca:	6263      	str	r3, [r4, #36]	; 0x24
 8002ccc:	4b04      	ldr	r3, [pc, #16]	; (8002ce0 <std+0x3c>)
 8002cce:	62a3      	str	r3, [r4, #40]	; 0x28
 8002cd0:	4b04      	ldr	r3, [pc, #16]	; (8002ce4 <std+0x40>)
 8002cd2:	62e3      	str	r3, [r4, #44]	; 0x2c
 8002cd4:	4b04      	ldr	r3, [pc, #16]	; (8002ce8 <std+0x44>)
 8002cd6:	6323      	str	r3, [r4, #48]	; 0x30
 8002cd8:	bd10      	pop	{r4, pc}
 8002cda:	bf00      	nop
 8002cdc:	080030cd 	.word	0x080030cd
 8002ce0:	080030ef 	.word	0x080030ef
 8002ce4:	08003127 	.word	0x08003127
 8002ce8:	0800314b 	.word	0x0800314b

08002cec <_cleanup_r>:
 8002cec:	4901      	ldr	r1, [pc, #4]	; (8002cf4 <_cleanup_r+0x8>)
 8002cee:	f000 b8af 	b.w	8002e50 <_fwalk_reent>
 8002cf2:	bf00      	nop
 8002cf4:	08002c2d 	.word	0x08002c2d

08002cf8 <__sfmoreglue>:
 8002cf8:	2268      	movs	r2, #104	; 0x68
 8002cfa:	b570      	push	{r4, r5, r6, lr}
 8002cfc:	1e4d      	subs	r5, r1, #1
 8002cfe:	4355      	muls	r5, r2
 8002d00:	460e      	mov	r6, r1
 8002d02:	f105 0174 	add.w	r1, r5, #116	; 0x74
 8002d06:	f7ff f979 	bl	8001ffc <_malloc_r>
 8002d0a:	4604      	mov	r4, r0
 8002d0c:	b140      	cbz	r0, 8002d20 <__sfmoreglue+0x28>
 8002d0e:	2100      	movs	r1, #0
 8002d10:	e9c0 1600 	strd	r1, r6, [r0]
 8002d14:	300c      	adds	r0, #12
 8002d16:	60a0      	str	r0, [r4, #8]
 8002d18:	f105 0268 	add.w	r2, r5, #104	; 0x68
 8002d1c:	f7ff f83a 	bl	8001d94 <memset>
 8002d20:	4620      	mov	r0, r4
 8002d22:	bd70      	pop	{r4, r5, r6, pc}

08002d24 <__sfp_lock_acquire>:
 8002d24:	4801      	ldr	r0, [pc, #4]	; (8002d2c <__sfp_lock_acquire+0x8>)
 8002d26:	f000 b8b3 	b.w	8002e90 <__retarget_lock_acquire_recursive>
 8002d2a:	bf00      	nop
 8002d2c:	20000261 	.word	0x20000261

08002d30 <__sfp_lock_release>:
 8002d30:	4801      	ldr	r0, [pc, #4]	; (8002d38 <__sfp_lock_release+0x8>)
 8002d32:	f000 b8ae 	b.w	8002e92 <__retarget_lock_release_recursive>
 8002d36:	bf00      	nop
 8002d38:	20000261 	.word	0x20000261

08002d3c <__sinit_lock_acquire>:
 8002d3c:	4801      	ldr	r0, [pc, #4]	; (8002d44 <__sinit_lock_acquire+0x8>)
 8002d3e:	f000 b8a7 	b.w	8002e90 <__retarget_lock_acquire_recursive>
 8002d42:	bf00      	nop
 8002d44:	20000262 	.word	0x20000262

08002d48 <__sinit_lock_release>:
 8002d48:	4801      	ldr	r0, [pc, #4]	; (8002d50 <__sinit_lock_release+0x8>)
 8002d4a:	f000 b8a2 	b.w	8002e92 <__retarget_lock_release_recursive>
 8002d4e:	bf00      	nop
 8002d50:	20000262 	.word	0x20000262

08002d54 <__sinit>:
 8002d54:	b510      	push	{r4, lr}
 8002d56:	4604      	mov	r4, r0
 8002d58:	f7ff fff0 	bl	8002d3c <__sinit_lock_acquire>
 8002d5c:	69a3      	ldr	r3, [r4, #24]
 8002d5e:	b11b      	cbz	r3, 8002d68 <__sinit+0x14>
 8002d60:	e8bd 4010 	ldmia.w	sp!, {r4, lr}
 8002d64:	f7ff bff0 	b.w	8002d48 <__sinit_lock_release>
 8002d68:	e9c4 3312 	strd	r3, r3, [r4, #72]	; 0x48
 8002d6c:	6523      	str	r3, [r4, #80]	; 0x50
 8002d6e:	4b13      	ldr	r3, [pc, #76]	; (8002dbc <__sinit+0x68>)
 8002d70:	4a13      	ldr	r2, [pc, #76]	; (8002dc0 <__sinit+0x6c>)
 8002d72:	681b      	ldr	r3, [r3, #0]
 8002d74:	62a2      	str	r2, [r4, #40]	; 0x28
 8002d76:	42a3      	cmp	r3, r4
 8002d78:	bf08      	it	eq
 8002d7a:	2301      	moveq	r3, #1
 8002d7c:	4620      	mov	r0, r4
 8002d7e:	bf08      	it	eq
 8002d80:	61a3      	streq	r3, [r4, #24]
 8002d82:	f000 f81f 	bl	8002dc4 <__sfp>
 8002d86:	6060      	str	r0, [r4, #4]
 8002d88:	4620      	mov	r0, r4
 8002d8a:	f000 f81b 	bl	8002dc4 <__sfp>
 8002d8e:	60a0      	str	r0, [r4, #8]
 8002d90:	4620      	mov	r0, r4
 8002d92:	f000 f817 	bl	8002dc4 <__sfp>
 8002d96:	2200      	movs	r2, #0
 8002d98:	2104      	movs	r1, #4
 8002d9a:	60e0      	str	r0, [r4, #12]
 8002d9c:	6860      	ldr	r0, [r4, #4]
 8002d9e:	f7ff ff81 	bl	8002ca4 <std>
 8002da2:	2201      	movs	r2, #1
 8002da4:	2109      	movs	r1, #9
 8002da6:	68a0      	ldr	r0, [r4, #8]
 8002da8:	f7ff ff7c 	bl	8002ca4 <std>
 8002dac:	2202      	movs	r2, #2
 8002dae:	2112      	movs	r1, #18
 8002db0:	68e0      	ldr	r0, [r4, #12]
 8002db2:	f7ff ff77 	bl	8002ca4 <std>
 8002db6:	2301      	movs	r3, #1
 8002db8:	61a3      	str	r3, [r4, #24]
 8002dba:	e7d1      	b.n	8002d60 <__sinit+0xc>
 8002dbc:	08003b08 	.word	0x08003b08
 8002dc0:	08002ced 	.word	0x08002ced

08002dc4 <__sfp>:
 8002dc4:	b5f8      	push	{r3, r4, r5, r6, r7, lr}
 8002dc6:	4607      	mov	r7, r0
 8002dc8:	f7ff ffac 	bl	8002d24 <__sfp_lock_acquire>
 8002dcc:	4b1e      	ldr	r3, [pc, #120]	; (8002e48 <__sfp+0x84>)
 8002dce:	681e      	ldr	r6, [r3, #0]
 8002dd0:	69b3      	ldr	r3, [r6, #24]
 8002dd2:	b913      	cbnz	r3, 8002dda <__sfp+0x16>
 8002dd4:	4630      	mov	r0, r6
 8002dd6:	f7ff ffbd 	bl	8002d54 <__sinit>
 8002dda:	3648      	adds	r6, #72	; 0x48
 8002ddc:	e9d6 3401 	ldrd	r3, r4, [r6, #4]
 8002de0:	3b01      	subs	r3, #1
 8002de2:	d503      	bpl.n	8002dec <__sfp+0x28>
 8002de4:	6833      	ldr	r3, [r6, #0]
 8002de6:	b30b      	cbz	r3, 8002e2c <__sfp+0x68>
 8002de8:	6836      	ldr	r6, [r6, #0]
 8002dea:	e7f7      	b.n	8002ddc <__sfp+0x18>
 8002dec:	f9b4 500c 	ldrsh.w	r5, [r4, #12]
 8002df0:	b9d5      	cbnz	r5, 8002e28 <__sfp+0x64>
 8002df2:	4b16      	ldr	r3, [pc, #88]	; (8002e4c <__sfp+0x88>)
 8002df4:	f104 0058 	add.w	r0, r4, #88	; 0x58
 8002df8:	60e3      	str	r3, [r4, #12]
 8002dfa:	6665      	str	r5, [r4, #100]	; 0x64
 8002dfc:	f000 f847 	bl	8002e8e <__retarget_lock_init_recursive>
 8002e00:	f7ff ff96 	bl	8002d30 <__sfp_lock_release>
 8002e04:	2208      	movs	r2, #8
 8002e06:	4629      	mov	r1, r5
 8002e08:	e9c4 5501 	strd	r5, r5, [r4, #4]
 8002e0c:	e9c4 5504 	strd	r5, r5, [r4, #16]
 8002e10:	6025      	str	r5, [r4, #0]
 8002e12:	61a5      	str	r5, [r4, #24]
 8002e14:	f104 005c 	add.w	r0, r4, #92	; 0x5c
 8002e18:	f7fe ffbc 	bl	8001d94 <memset>
 8002e1c:	e9c4 550d 	strd	r5, r5, [r4, #52]	; 0x34
 8002e20:	e9c4 5512 	strd	r5, r5, [r4, #72]	; 0x48
 8002e24:	4620      	mov	r0, r4
 8002e26:	bdf8      	pop	{r3, r4, r5, r6, r7, pc}
 8002e28:	3468      	adds	r4, #104	; 0x68
 8002e2a:	e7d9      	b.n	8002de0 <__sfp+0x1c>
 8002e2c:	2104      	movs	r1, #4
 8002e2e:	4638      	mov	r0, r7
 8002e30:	f7ff ff62 	bl	8002cf8 <__sfmoreglue>
 8002e34:	4604      	mov	r4, r0
 8002e36:	6030      	str	r0, [r6, #0]
 8002e38:	2800      	cmp	r0, #0
 8002e3a:	d1d5      	bne.n	8002de8 <__sfp+0x24>
 8002e3c:	f7ff ff78 	bl	8002d30 <__sfp_lock_release>
 8002e40:	230c      	movs	r3, #12
 8002e42:	603b      	str	r3, [r7, #0]
 8002e44:	e7ee      	b.n	8002e24 <__sfp+0x60>
 8002e46:	bf00      	nop
 8002e48:	08003b08 	.word	0x08003b08
 8002e4c:	ffff0001 	.word	0xffff0001

08002e50 <_fwalk_reent>:
 8002e50:	e92d 43f8 	stmdb	sp!, {r3, r4, r5, r6, r7, r8, r9, lr}
 8002e54:	4606      	mov	r6, r0
 8002e56:	4688      	mov	r8, r1
 8002e58:	2700      	movs	r7, #0
 8002e5a:	f100 0448 	add.w	r4, r0, #72	; 0x48
 8002e5e:	e9d4 9501 	ldrd	r9, r5, [r4, #4]
 8002e62:	f1b9 0901 	subs.w	r9, r9, #1
 8002e66:	d505      	bpl.n	8002e74 <_fwalk_reent+0x24>
 8002e68:	6824      	ldr	r4, [r4, #0]
 8002e6a:	2c00      	cmp	r4, #0
 8002e6c:	d1f7      	bne.n	8002e5e <_fwalk_reent+0xe>
 8002e6e:	4638      	mov	r0, r7
 8002e70:	e8bd 83f8 	ldmia.w	sp!, {r3, r4, r5, r6, r7, r8, r9, pc}
 8002e74:	89ab      	ldrh	r3, [r5, #12]
 8002e76:	2b01      	cmp	r3, #1
 8002e78:	d907      	bls.n	8002e8a <_fwalk_reent+0x3a>
 8002e7a:	f9b5 300e 	ldrsh.w	r3, [r5, #14]
 8002e7e:	3301      	adds	r3, #1
 8002e80:	d003      	beq.n	8002e8a <_fwalk_reent+0x3a>
 8002e82:	4629      	mov	r1, r5
 8002e84:	4630      	mov	r0, r6
 8002e86:	47c0      	blx	r8
 8002e88:	4307      	orrs	r7, r0
 8002e8a:	3568      	adds	r5, #104	; 0x68
 8002e8c:	e7e9      	b.n	8002e62 <_fwalk_reent+0x12>

08002e8e <__retarget_lock_init_recursive>:
 8002e8e:	4770      	bx	lr

08002e90 <__retarget_lock_acquire_recursive>:
 8002e90:	4770      	bx	lr

08002e92 <__retarget_lock_release_recursive>:
 8002e92:	4770      	bx	lr

08002e94 <__swhatbuf_r>:
 8002e94:	b570      	push	{r4, r5, r6, lr}
 8002e96:	460e      	mov	r6, r1
 8002e98:	f9b1 100e 	ldrsh.w	r1, [r1, #14]
 8002e9c:	4614      	mov	r4, r2
 8002e9e:	2900      	cmp	r1, #0
 8002ea0:	461d      	mov	r5, r3
 8002ea2:	b096      	sub	sp, #88	; 0x58
 8002ea4:	da08      	bge.n	8002eb8 <__swhatbuf_r+0x24>
 8002ea6:	2200      	movs	r2, #0
 8002ea8:	f9b6 300c 	ldrsh.w	r3, [r6, #12]
 8002eac:	602a      	str	r2, [r5, #0]
 8002eae:	061a      	lsls	r2, r3, #24
 8002eb0:	d410      	bmi.n	8002ed4 <__swhatbuf_r+0x40>
 8002eb2:	f44f 6380 	mov.w	r3, #1024	; 0x400
 8002eb6:	e00e      	b.n	8002ed6 <__swhatbuf_r+0x42>
 8002eb8:	466a      	mov	r2, sp
 8002eba:	f000 f96d 	bl	8003198 <_fstat_r>
 8002ebe:	2800      	cmp	r0, #0
 8002ec0:	dbf1      	blt.n	8002ea6 <__swhatbuf_r+0x12>
 8002ec2:	9a01      	ldr	r2, [sp, #4]
 8002ec4:	f402 4270 	and.w	r2, r2, #61440	; 0xf000
 8002ec8:	f5a2 5300 	sub.w	r3, r2, #8192	; 0x2000
 8002ecc:	425a      	negs	r2, r3
 8002ece:	415a      	adcs	r2, r3
 8002ed0:	602a      	str	r2, [r5, #0]
 8002ed2:	e7ee      	b.n	8002eb2 <__swhatbuf_r+0x1e>
 8002ed4:	2340      	movs	r3, #64	; 0x40
 8002ed6:	2000      	movs	r0, #0
 8002ed8:	6023      	str	r3, [r4, #0]
 8002eda:	b016      	add	sp, #88	; 0x58
 8002edc:	bd70      	pop	{r4, r5, r6, pc}
	...

08002ee0 <__smakebuf_r>:
 8002ee0:	898b      	ldrh	r3, [r1, #12]
 8002ee2:	b573      	push	{r0, r1, r4, r5, r6, lr}
 8002ee4:	079d      	lsls	r5, r3, #30
 8002ee6:	4606      	mov	r6, r0
 8002ee8:	460c      	mov	r4, r1
 8002eea:	d507      	bpl.n	8002efc <__smakebuf_r+0x1c>
 8002eec:	f104 0347 	add.w	r3, r4, #71	; 0x47
 8002ef0:	6023      	str	r3, [r4, #0]
 8002ef2:	6123      	str	r3, [r4, #16]
 8002ef4:	2301      	movs	r3, #1
 8002ef6:	6163      	str	r3, [r4, #20]
 8002ef8:	b002      	add	sp, #8
 8002efa:	bd70      	pop	{r4, r5, r6, pc}
 8002efc:	466a      	mov	r2, sp
 8002efe:	ab01      	add	r3, sp, #4
 8002f00:	f7ff ffc8 	bl	8002e94 <__swhatbuf_r>
 8002f04:	9900      	ldr	r1, [sp, #0]
 8002f06:	4605      	mov	r5, r0
 8002f08:	4630      	mov	r0, r6
 8002f0a:	f7ff f877 	bl	8001ffc <_malloc_r>
 8002f0e:	b948      	cbnz	r0, 8002f24 <__smakebuf_r+0x44>
 8002f10:	f9b4 300c 	ldrsh.w	r3, [r4, #12]
 8002f14:	059a      	lsls	r2, r3, #22
 8002f16:	d4ef      	bmi.n	8002ef8 <__smakebuf_r+0x18>
 8002f18:	f023 0303 	bic.w	r3, r3, #3
 8002f1c:	f043 0302 	orr.w	r3, r3, #2
 8002f20:	81a3      	strh	r3, [r4, #12]
 8002f22:	e7e3      	b.n	8002eec <__smakebuf_r+0xc>
 8002f24:	4b0d      	ldr	r3, [pc, #52]	; (8002f5c <__smakebuf_r+0x7c>)
 8002f26:	62b3      	str	r3, [r6, #40]	; 0x28
 8002f28:	89a3      	ldrh	r3, [r4, #12]
 8002f2a:	6020      	str	r0, [r4, #0]
 8002f2c:	f043 0380 	orr.w	r3, r3, #128	; 0x80
 8002f30:	81a3      	strh	r3, [r4, #12]
 8002f32:	9b00      	ldr	r3, [sp, #0]
 8002f34:	6120      	str	r0, [r4, #16]
 8002f36:	6163      	str	r3, [r4, #20]
 8002f38:	9b01      	ldr	r3, [sp, #4]
 8002f3a:	b15b      	cbz	r3, 8002f54 <__smakebuf_r+0x74>
 8002f3c:	4630      	mov	r0, r6
 8002f3e:	f9b4 100e 	ldrsh.w	r1, [r4, #14]
 8002f42:	f000 f93b 	bl	80031bc <_isatty_r>
 8002f46:	b128      	cbz	r0, 8002f54 <__smakebuf_r+0x74>
 8002f48:	89a3      	ldrh	r3, [r4, #12]
 8002f4a:	f023 0303 	bic.w	r3, r3, #3
 8002f4e:	f043 0301 	orr.w	r3, r3, #1
 8002f52:	81a3      	strh	r3, [r4, #12]
 8002f54:	89a0      	ldrh	r0, [r4, #12]
 8002f56:	4305      	orrs	r5, r0
 8002f58:	81a5      	strh	r5, [r4, #12]
 8002f5a:	e7cd      	b.n	8002ef8 <__smakebuf_r+0x18>
 8002f5c:	08002ced 	.word	0x08002ced

08002f60 <memchr>:
 8002f60:	4603      	mov	r3, r0
 8002f62:	b510      	push	{r4, lr}
 8002f64:	b2c9      	uxtb	r1, r1
 8002f66:	4402      	add	r2, r0
 8002f68:	4293      	cmp	r3, r2
 8002f6a:	4618      	mov	r0, r3
 8002f6c:	d101      	bne.n	8002f72 <memchr+0x12>
 8002f6e:	2000      	movs	r0, #0
 8002f70:	e003      	b.n	8002f7a <memchr+0x1a>
 8002f72:	7804      	ldrb	r4, [r0, #0]
 8002f74:	3301      	adds	r3, #1
 8002f76:	428c      	cmp	r4, r1
 8002f78:	d1f6      	bne.n	8002f68 <memchr+0x8>
 8002f7a:	bd10      	pop	{r4, pc}

08002f7c <memcpy>:
 8002f7c:	440a      	add	r2, r1
 8002f7e:	4291      	cmp	r1, r2
 8002f80:	f100 33ff 	add.w	r3, r0, #4294967295
 8002f84:	d100      	bne.n	8002f88 <memcpy+0xc>
 8002f86:	4770      	bx	lr
 8002f88:	b510      	push	{r4, lr}
 8002f8a:	f811 4b01 	ldrb.w	r4, [r1], #1
 8002f8e:	4291      	cmp	r1, r2
 8002f90:	f803 4f01 	strb.w	r4, [r3, #1]!
 8002f94:	d1f9      	bne.n	8002f8a <memcpy+0xe>
 8002f96:	bd10      	pop	{r4, pc}

08002f98 <memmove>:
 8002f98:	4288      	cmp	r0, r1
 8002f9a:	b510      	push	{r4, lr}
 8002f9c:	eb01 0402 	add.w	r4, r1, r2
 8002fa0:	d902      	bls.n	8002fa8 <memmove+0x10>
 8002fa2:	4284      	cmp	r4, r0
 8002fa4:	4623      	mov	r3, r4
 8002fa6:	d807      	bhi.n	8002fb8 <memmove+0x20>
 8002fa8:	1e43      	subs	r3, r0, #1
 8002faa:	42a1      	cmp	r1, r4
 8002fac:	d008      	beq.n	8002fc0 <memmove+0x28>
 8002fae:	f811 2b01 	ldrb.w	r2, [r1], #1
 8002fb2:	f803 2f01 	strb.w	r2, [r3, #1]!
 8002fb6:	e7f8      	b.n	8002faa <memmove+0x12>
 8002fb8:	4601      	mov	r1, r0
 8002fba:	4402      	add	r2, r0
 8002fbc:	428a      	cmp	r2, r1
 8002fbe:	d100      	bne.n	8002fc2 <memmove+0x2a>
 8002fc0:	bd10      	pop	{r4, pc}
 8002fc2:	f813 4d01 	ldrb.w	r4, [r3, #-1]!
 8002fc6:	f802 4d01 	strb.w	r4, [r2, #-1]!
 8002fca:	e7f7      	b.n	8002fbc <memmove+0x24>

08002fcc <__malloc_lock>:
 8002fcc:	4801      	ldr	r0, [pc, #4]	; (8002fd4 <__malloc_lock+0x8>)
 8002fce:	f7ff bf5f 	b.w	8002e90 <__retarget_lock_acquire_recursive>
 8002fd2:	bf00      	nop
 8002fd4:	20000260 	.word	0x20000260

08002fd8 <__malloc_unlock>:
 8002fd8:	4801      	ldr	r0, [pc, #4]	; (8002fe0 <__malloc_unlock+0x8>)
 8002fda:	f7ff bf5a 	b.w	8002e92 <__retarget_lock_release_recursive>
 8002fde:	bf00      	nop
 8002fe0:	20000260 	.word	0x20000260

08002fe4 <_realloc_r>:
 8002fe4:	e92d 41f0 	stmdb	sp!, {r4, r5, r6, r7, r8, lr}
 8002fe8:	4680      	mov	r8, r0
 8002fea:	4614      	mov	r4, r2
 8002fec:	460e      	mov	r6, r1
 8002fee:	b921      	cbnz	r1, 8002ffa <_realloc_r+0x16>
 8002ff0:	4611      	mov	r1, r2
 8002ff2:	e8bd 41f0 	ldmia.w	sp!, {r4, r5, r6, r7, r8, lr}
 8002ff6:	f7ff b801 	b.w	8001ffc <_malloc_r>
 8002ffa:	b92a      	cbnz	r2, 8003008 <_realloc_r+0x24>
 8002ffc:	f7fe ff96 	bl	8001f2c <_free_r>
 8003000:	4625      	mov	r5, r4
 8003002:	4628      	mov	r0, r5
 8003004:	e8bd 81f0 	ldmia.w	sp!, {r4, r5, r6, r7, r8, pc}
 8003008:	f000 f8fa 	bl	8003200 <_malloc_usable_size_r>
 800300c:	4284      	cmp	r4, r0
 800300e:	4607      	mov	r7, r0
 8003010:	d802      	bhi.n	8003018 <_realloc_r+0x34>
 8003012:	ebb4 0f50 	cmp.w	r4, r0, lsr #1
 8003016:	d812      	bhi.n	800303e <_realloc_r+0x5a>
 8003018:	4621      	mov	r1, r4
 800301a:	4640      	mov	r0, r8
 800301c:	f7fe ffee 	bl	8001ffc <_malloc_r>
 8003020:	4605      	mov	r5, r0
 8003022:	2800      	cmp	r0, #0
 8003024:	d0ed      	beq.n	8003002 <_realloc_r+0x1e>
 8003026:	42bc      	cmp	r4, r7
 8003028:	4622      	mov	r2, r4
 800302a:	4631      	mov	r1, r6
 800302c:	bf28      	it	cs
 800302e:	463a      	movcs	r2, r7
 8003030:	f7ff ffa4 	bl	8002f7c <memcpy>
 8003034:	4631      	mov	r1, r6
 8003036:	4640      	mov	r0, r8
 8003038:	f7fe ff78 	bl	8001f2c <_free_r>
 800303c:	e7e1      	b.n	8003002 <_realloc_r+0x1e>
 800303e:	4635      	mov	r5, r6
 8003040:	e7df      	b.n	8003002 <_realloc_r+0x1e>

08003042 <_raise_r>:
 8003042:	291f      	cmp	r1, #31
 8003044:	b538      	push	{r3, r4, r5, lr}
 8003046:	4604      	mov	r4, r0
 8003048:	460d      	mov	r5, r1
 800304a:	d904      	bls.n	8003056 <_raise_r+0x14>
 800304c:	2316      	movs	r3, #22
 800304e:	6003      	str	r3, [r0, #0]
 8003050:	f04f 30ff 	mov.w	r0, #4294967295
 8003054:	bd38      	pop	{r3, r4, r5, pc}
 8003056:	6c42      	ldr	r2, [r0, #68]	; 0x44
 8003058:	b112      	cbz	r2, 8003060 <_raise_r+0x1e>
 800305a:	f852 3021 	ldr.w	r3, [r2, r1, lsl #2]
 800305e:	b94b      	cbnz	r3, 8003074 <_raise_r+0x32>
 8003060:	4620      	mov	r0, r4
 8003062:	f000 f831 	bl	80030c8 <_getpid_r>
 8003066:	462a      	mov	r2, r5
 8003068:	4601      	mov	r1, r0
 800306a:	4620      	mov	r0, r4
 800306c:	e8bd 4038 	ldmia.w	sp!, {r3, r4, r5, lr}
 8003070:	f000 b818 	b.w	80030a4 <_kill_r>
 8003074:	2b01      	cmp	r3, #1
 8003076:	d00a      	beq.n	800308e <_raise_r+0x4c>
 8003078:	1c59      	adds	r1, r3, #1
 800307a:	d103      	bne.n	8003084 <_raise_r+0x42>
 800307c:	2316      	movs	r3, #22
 800307e:	6003      	str	r3, [r0, #0]
 8003080:	2001      	movs	r0, #1
 8003082:	e7e7      	b.n	8003054 <_raise_r+0x12>
 8003084:	2400      	movs	r4, #0
 8003086:	4628      	mov	r0, r5
 8003088:	f842 4025 	str.w	r4, [r2, r5, lsl #2]
 800308c:	4798      	blx	r3
 800308e:	2000      	movs	r0, #0
 8003090:	e7e0      	b.n	8003054 <_raise_r+0x12>
	...

08003094 <raise>:
 8003094:	4b02      	ldr	r3, [pc, #8]	; (80030a0 <raise+0xc>)
 8003096:	4601      	mov	r1, r0
 8003098:	6818      	ldr	r0, [r3, #0]
 800309a:	f7ff bfd2 	b.w	8003042 <_raise_r>
 800309e:	bf00      	nop
 80030a0:	20000050 	.word	0x20000050

080030a4 <_kill_r>:
 80030a4:	b538      	push	{r3, r4, r5, lr}
 80030a6:	2300      	movs	r3, #0
 80030a8:	4d06      	ldr	r5, [pc, #24]	; (80030c4 <_kill_r+0x20>)
 80030aa:	4604      	mov	r4, r0
 80030ac:	4608      	mov	r0, r1
 80030ae:	4611      	mov	r1, r2
 80030b0:	602b      	str	r3, [r5, #0]
 80030b2:	f7fd fd99 	bl	8000be8 <_kill>
 80030b6:	1c43      	adds	r3, r0, #1
 80030b8:	d102      	bne.n	80030c0 <_kill_r+0x1c>
 80030ba:	682b      	ldr	r3, [r5, #0]
 80030bc:	b103      	cbz	r3, 80030c0 <_kill_r+0x1c>
 80030be:	6023      	str	r3, [r4, #0]
 80030c0:	bd38      	pop	{r3, r4, r5, pc}
 80030c2:	bf00      	nop
 80030c4:	20000264 	.word	0x20000264

080030c8 <_getpid_r>:
 80030c8:	f7fd bd8c 	b.w	8000be4 <_getpid>

080030cc <__sread>:
 80030cc:	b510      	push	{r4, lr}
 80030ce:	460c      	mov	r4, r1
 80030d0:	f9b1 100e 	ldrsh.w	r1, [r1, #14]
 80030d4:	f000 f89c 	bl	8003210 <_read_r>
 80030d8:	2800      	cmp	r0, #0
 80030da:	bfab      	itete	ge
 80030dc:	6d63      	ldrge	r3, [r4, #84]	; 0x54
 80030de:	89a3      	ldrhlt	r3, [r4, #12]
 80030e0:	181b      	addge	r3, r3, r0
 80030e2:	f423 5380 	biclt.w	r3, r3, #4096	; 0x1000
 80030e6:	bfac      	ite	ge
 80030e8:	6563      	strge	r3, [r4, #84]	; 0x54
 80030ea:	81a3      	strhlt	r3, [r4, #12]
 80030ec:	bd10      	pop	{r4, pc}

080030ee <__swrite>:
 80030ee:	e92d 41f0 	stmdb	sp!, {r4, r5, r6, r7, r8, lr}
 80030f2:	461f      	mov	r7, r3
 80030f4:	898b      	ldrh	r3, [r1, #12]
 80030f6:	4605      	mov	r5, r0
 80030f8:	05db      	lsls	r3, r3, #23
 80030fa:	460c      	mov	r4, r1
 80030fc:	4616      	mov	r6, r2
 80030fe:	d505      	bpl.n	800310c <__swrite+0x1e>
 8003100:	2302      	movs	r3, #2
 8003102:	2200      	movs	r2, #0
 8003104:	f9b1 100e 	ldrsh.w	r1, [r1, #14]
 8003108:	f000 f868 	bl	80031dc <_lseek_r>
 800310c:	89a3      	ldrh	r3, [r4, #12]
 800310e:	4632      	mov	r2, r6
 8003110:	f423 5380 	bic.w	r3, r3, #4096	; 0x1000
 8003114:	81a3      	strh	r3, [r4, #12]
 8003116:	4628      	mov	r0, r5
 8003118:	463b      	mov	r3, r7
 800311a:	f9b4 100e 	ldrsh.w	r1, [r4, #14]
 800311e:	e8bd 41f0 	ldmia.w	sp!, {r4, r5, r6, r7, r8, lr}
 8003122:	f000 b817 	b.w	8003154 <_write_r>

08003126 <__sseek>:
 8003126:	b510      	push	{r4, lr}
 8003128:	460c      	mov	r4, r1
 800312a:	f9b1 100e 	ldrsh.w	r1, [r1, #14]
 800312e:	f000 f855 	bl	80031dc <_lseek_r>
 8003132:	1c43      	adds	r3, r0, #1
 8003134:	89a3      	ldrh	r3, [r4, #12]
 8003136:	bf15      	itete	ne
 8003138:	6560      	strne	r0, [r4, #84]	; 0x54
 800313a:	f423 5380 	biceq.w	r3, r3, #4096	; 0x1000
 800313e:	f443 5380 	orrne.w	r3, r3, #4096	; 0x1000
 8003142:	81a3      	strheq	r3, [r4, #12]
 8003144:	bf18      	it	ne
 8003146:	81a3      	strhne	r3, [r4, #12]
 8003148:	bd10      	pop	{r4, pc}

0800314a <__sclose>:
 800314a:	f9b1 100e 	ldrsh.w	r1, [r1, #14]
 800314e:	f000 b813 	b.w	8003178 <_close_r>
	...

08003154 <_write_r>:
 8003154:	b538      	push	{r3, r4, r5, lr}
 8003156:	4604      	mov	r4, r0
 8003158:	4608      	mov	r0, r1
 800315a:	4611      	mov	r1, r2
 800315c:	2200      	movs	r2, #0
 800315e:	4d05      	ldr	r5, [pc, #20]	; (8003174 <_write_r+0x20>)
 8003160:	602a      	str	r2, [r5, #0]
 8003162:	461a      	mov	r2, r3
 8003164:	f7fd fd5c 	bl	8000c20 <_write>
 8003168:	1c43      	adds	r3, r0, #1
 800316a:	d102      	bne.n	8003172 <_write_r+0x1e>
 800316c:	682b      	ldr	r3, [r5, #0]
 800316e:	b103      	cbz	r3, 8003172 <_write_r+0x1e>
 8003170:	6023      	str	r3, [r4, #0]
 8003172:	bd38      	pop	{r3, r4, r5, pc}
 8003174:	20000264 	.word	0x20000264

08003178 <_close_r>:
 8003178:	b538      	push	{r3, r4, r5, lr}
 800317a:	2300      	movs	r3, #0
 800317c:	4d05      	ldr	r5, [pc, #20]	; (8003194 <_close_r+0x1c>)
 800317e:	4604      	mov	r4, r0
 8003180:	4608      	mov	r0, r1
 8003182:	602b      	str	r3, [r5, #0]
 8003184:	f7fd fd5a 	bl	8000c3c <_close>
 8003188:	1c43      	adds	r3, r0, #1
 800318a:	d102      	bne.n	8003192 <_close_r+0x1a>
 800318c:	682b      	ldr	r3, [r5, #0]
 800318e:	b103      	cbz	r3, 8003192 <_close_r+0x1a>
 8003190:	6023      	str	r3, [r4, #0]
 8003192:	bd38      	pop	{r3, r4, r5, pc}
 8003194:	20000264 	.word	0x20000264

08003198 <_fstat_r>:
 8003198:	b538      	push	{r3, r4, r5, lr}
 800319a:	2300      	movs	r3, #0
 800319c:	4d06      	ldr	r5, [pc, #24]	; (80031b8 <_fstat_r+0x20>)
 800319e:	4604      	mov	r4, r0
 80031a0:	4608      	mov	r0, r1
 80031a2:	4611      	mov	r1, r2
 80031a4:	602b      	str	r3, [r5, #0]
 80031a6:	f7fd fd4c 	bl	8000c42 <_fstat>
 80031aa:	1c43      	adds	r3, r0, #1
 80031ac:	d102      	bne.n	80031b4 <_fstat_r+0x1c>
 80031ae:	682b      	ldr	r3, [r5, #0]
 80031b0:	b103      	cbz	r3, 80031b4 <_fstat_r+0x1c>
 80031b2:	6023      	str	r3, [r4, #0]
 80031b4:	bd38      	pop	{r3, r4, r5, pc}
 80031b6:	bf00      	nop
 80031b8:	20000264 	.word	0x20000264

080031bc <_isatty_r>:
 80031bc:	b538      	push	{r3, r4, r5, lr}
 80031be:	2300      	movs	r3, #0
 80031c0:	4d05      	ldr	r5, [pc, #20]	; (80031d8 <_isatty_r+0x1c>)
 80031c2:	4604      	mov	r4, r0
 80031c4:	4608      	mov	r0, r1
 80031c6:	602b      	str	r3, [r5, #0]
 80031c8:	f7fd fd40 	bl	8000c4c <_isatty>
 80031cc:	1c43      	adds	r3, r0, #1
 80031ce:	d102      	bne.n	80031d6 <_isatty_r+0x1a>
 80031d0:	682b      	ldr	r3, [r5, #0]
 80031d2:	b103      	cbz	r3, 80031d6 <_isatty_r+0x1a>
 80031d4:	6023      	str	r3, [r4, #0]
 80031d6:	bd38      	pop	{r3, r4, r5, pc}
 80031d8:	20000264 	.word	0x20000264

080031dc <_lseek_r>:
 80031dc:	b538      	push	{r3, r4, r5, lr}
 80031de:	4604      	mov	r4, r0
 80031e0:	4608      	mov	r0, r1
 80031e2:	4611      	mov	r1, r2
 80031e4:	2200      	movs	r2, #0
 80031e6:	4d05      	ldr	r5, [pc, #20]	; (80031fc <_lseek_r+0x20>)
 80031e8:	602a      	str	r2, [r5, #0]
 80031ea:	461a      	mov	r2, r3
 80031ec:	f7fd fd30 	bl	8000c50 <_lseek>
 80031f0:	1c43      	adds	r3, r0, #1
 80031f2:	d102      	bne.n	80031fa <_lseek_r+0x1e>
 80031f4:	682b      	ldr	r3, [r5, #0]
 80031f6:	b103      	cbz	r3, 80031fa <_lseek_r+0x1e>
 80031f8:	6023      	str	r3, [r4, #0]
 80031fa:	bd38      	pop	{r3, r4, r5, pc}
 80031fc:	20000264 	.word	0x20000264

08003200 <_malloc_usable_size_r>:
 8003200:	f851 3c04 	ldr.w	r3, [r1, #-4]
 8003204:	1f18      	subs	r0, r3, #4
 8003206:	2b00      	cmp	r3, #0
 8003208:	bfbc      	itt	lt
 800320a:	580b      	ldrlt	r3, [r1, r0]
 800320c:	18c0      	addlt	r0, r0, r3
 800320e:	4770      	bx	lr

08003210 <_read_r>:
 8003210:	b538      	push	{r3, r4, r5, lr}
 8003212:	4604      	mov	r4, r0
 8003214:	4608      	mov	r0, r1
 8003216:	4611      	mov	r1, r2
 8003218:	2200      	movs	r2, #0
 800321a:	4d05      	ldr	r5, [pc, #20]	; (8003230 <_read_r+0x20>)
 800321c:	602a      	str	r2, [r5, #0]
 800321e:	461a      	mov	r2, r3
 8003220:	f7fd fcf0 	bl	8000c04 <_read>
 8003224:	1c43      	adds	r3, r0, #1
 8003226:	d102      	bne.n	800322e <_read_r+0x1e>
 8003228:	682b      	ldr	r3, [r5, #0]
 800322a:	b103      	cbz	r3, 800322e <_read_r+0x1e>
 800322c:	6023      	str	r3, [r4, #0]
 800322e:	bd38      	pop	{r3, r4, r5, pc}
 8003230:	20000264 	.word	0x20000264

08003234 <_init>:
 8003234:	b5f8      	push	{r3, r4, r5, r6, r7, lr}
 8003236:	bf00      	nop
 8003238:	bcf8      	pop	{r3, r4, r5, r6, r7}
 800323a:	bc08      	pop	{r3}
 800323c:	469e      	mov	lr, r3
 800323e:	4770      	bx	lr

08003240 <_fini>:
 8003240:	b5f8      	push	{r3, r4, r5, r6, r7, lr}
 8003242:	bf00      	nop
 8003244:	bcf8      	pop	{r3, r4, r5, r6, r7}
 8003246:	bc08      	pop	{r3}
 8003248:	469e      	mov	lr, r3
 800324a:	4770      	bx	lr
